(lp0
ccopy_reg
_reconstructor
p1
(cFieldTree
FieldNode
p2
c__builtin__
object
p3
Ntp4
Rp5
(dp6
S'name'
p7
V\u8ba1\u7b97\u673a
p8
sS'level'
p9
I1
sS'books_allow'
p10
c__builtin__
set
p11
((lp12
V2338464
p13
aV5914424
p14
aV3592797
p15
aV1179112
p16
aV1459080
p17
aV2240307
p18
aV1737683
p19
aV3594638
p20
aV1151626
p21
aV2667135
p22
aV3618849
p23
aV6748308
p24
aV4935377
p25
aV3181542
p26
aV1118970
p27
aV4178905
p28
aV1237276
p29
aV25878150
p30
aV3301522
p31
aV20412191
p32
aV1615072
p33
aV1437118
p34
aV1443631
p35
aV1610247
p36
aV26278639
p37
aV3291901
p38
aV21241209
p39
aV1506160
p40
aV2316495
p41
aV4725272
p42
aV24708145
p43
aV2349114
p44
aV1435905
p45
aV3062127
p46
aV2287746
p47
aV2728627
p48
aV4871292
p49
aV1682974
p50
aV2297146
p51
aV25749695
p52
aV4200645
p53
aV24860397
p54
aV1419628
p55
aV5290469
p56
aV3767413
p57
aV2161862
p58
aV2175242
p59
aV2292260
p60
aV1649502
p61
aV1156205
p62
aV1230362
p63
aV1149094
p64
aV4928770
p65
aV2019897
p66
aV1289152
p67
aV1230143
p68
aV1551454
p69
aV3116777
p70
aV2698938
p71
aV2255892
p72
aV1102102
p73
aV25820714
p74
aV5908741
p75
aV3651403
p76
aV1433075
p77
aV4925996
p78
aV6433169
p79
aV25861795
p80
aV1928877
p81
aV7006537
p82
aV3101355
p83
aV1240053
p84
aV4199502
p85
aV2068856
p86
aV1481158
p87
aV1216434
p88
aV1767071
p89
aV1053171
p90
aV3239851
p91
aV1232101
p92
aV6890224
p93
aV5282332
p94
aV6864501
p95
aV1230137
p96
aV1229981
p97
aV4999476
p98
aV1794390
p99
aV1422248
p100
aV2308234
p101
aV2326254
p102
aV1868037
p103
aV1185175
p104
aV3209162
p105
aV3397104
p106
aV1395541
p107
aV1219264
p108
aV2979645
p109
aV5353160
p110
aV1444892
p111
aV1117355
p112
aV1117354
p113
aV1881555
p114
aV1237261
p115
aV6965594
p116
aV2256069
p117
aV3871906
p118
aV24335672
p119
aV10791651
p120
aV1310584
p121
aV4874566
p122
aV4908911
p123
aV1130106
p124
aV3042029
p125
aV4817729
p126
aV1885761
p127
aV3208694
p128
aV1879508
p129
aV1533296
p130
aV1237949
p131
aV6968207
p132
aV1231644
p133
aV1872221
p134
aV2180633
p135
aV4814440
p136
aV2305237
p137
aV19955755
p138
aV2113940
p139
aV1862011
p140
aV1170016
p141
aV6785790
p142
aV2052910
p143
aV3900446
p144
aV3265691
p145
aV1191917
p146
aV1768601
p147
aV11392837
p148
aV1453165
p149
aV3040870
p150
aV1264520
p151
aV1147357
p152
aV1289588
p153
aV4124141
p154
aV1074262
p155
aV5313010
p156
aV1086833
p157
aV2023089
p158
aV1231852
p159
aV21632268
p160
aV1231584
p161
aV6709783
p162
aV2025067
p163
aV10427995
p164
aV1492018
p165
aV1492019
p166
aV1171117
p167
aV2208594
p168
aV3702799
p169
aV10747453
p170
aV2261897
p171
aV6909074
p172
aV2125936
p173
aV4191526
p174
aV2667493
p175
aV2368652
p176
aV1155934
p177
aV3029417
p178
aV3802271
p179
aV2022572
p180
aV20142445
p181
aV1509479
p182
aV3290022
p183
aV25826902
p184
aV1071093
p185
aV4910589
p186
aV3017583
p187
aV25733582
p188
aV5253765
p189
aV1398620
p190
aV1533122
p191
aV24708143
p192
aV24739213
p193
aV4843567
p194
aV2186221
p195
aV2110638
p196
aV1219858
p197
aV19975498
p198
aV1909003
p199
aV3178128
p200
aV5416997
p201
aV5064311
p202
aV10482130
p203
aV5450816
p204
aV6559159
p205
aV24137241
p206
aV1239562
p207
aV1216637
p208
aV1517979
p209
aV1219005
p210
aV1449938
p211
aV2024886
p212
aV1243930
p213
aV3719052
p214
aV1432343
p215
aV1245789
p216
aV3461503
p217
aV4058336
p218
aV10528446
p219
aV10528447
p220
aV1240266
p221
aV1318654
p222
aV11505704
p223
aV1652621
p224
aV1435554
p225
aV3039449
p226
aV3125432
p227
aV1237707
p228
aV2058457
p229
aV4178327
p230
aV4210602
p231
aV20480692
p232
aV1231972
p233
aV3124006
p234
aV2025548
p235
aV2300691
p236
aV1391740
p237
aV3993637
p238
aV4875600
p239
aV1174284
p240
aV1754499
p241
aV6266269
p242
aV1449270
p243
aV4046184
p244
aV2274854
p245
aV10565816
p246
aV6920100
p247
aV2871431
p248
aV4006425
p249
aV3101331
p250
aV3909806
p251
aV5378344
p252
aV1933232
p253
aV5924300
p254
aV3031184
p255
aV1257113
p256
aV1674333
p257
aV6065295
p258
aV2208530
p259
aV6127413
p260
aV3925617
p261
aV1108725
p262
aV24738302
p263
aV10522003
p264
aV1783934
p265
aV1193833
p266
aV10437187
p267
aV1239663
p268
aV1851811
p269
aV10795119
p270
aV1236778
p271
aV4727015
p272
aV2622151
p273
aV5401859
p274
aV1504286
p275
aV1230394
p276
aV1418572
p277
aV1790329
p278
aV5402708
p279
aV2159023
p280
aV1149105
p281
aV4187478
p282
aV1800090
p283
aV1110406
p284
aV4061882
p285
aV2330824
p286
aV6873681
p287
aV2995342
p288
aV1886897
p289
aV1975607
p290
aV1867455
p291
aV6829097
p292
aV4316662
p293
aV10345017
p294
aV1056837
p295
aV4839207
p296
aV4926707
p297
aV1896735
p298
aV1230123
p299
aV23123255
p300
aV2208539
p301
aV1153922
p302
aV2228378
p303
aV1968316
p304
aV4863532
p305
aV1283244
p306
aV3164614
p307
aV1110544
p308
aV2098507
p309
aV4196676
p310
aV4901961
p311
aV4196673
p312
aV6820403
p313
aV4748795
p314
aV2236899
p315
aV7051955
p316
aV1106247
p317
aV1395123
p318
aV4901568
p319
aV1801044
p320
aV1220873
p321
aV1244896
p322
aV1792217
p323
aV10546139
p324
aV1488687
p325
aV1155548
p326
aV4188358
p327
aV20502598
p328
aV1239872
p329
aV1879458
p330
aV3260752
p331
aV4285832
p332
aV1327048
p333
aV6971366
p334
aV1445962
p335
aV4040783
p336
aV6809087
p337
aV24758372
p338
aV3895531
p339
aV25848178
p340
aV24305938
p341
aV25902942
p342
aV6758780
p343
aV20476799
p344
aV3061060
p345
aV1215818
p346
aV4241826
p347
aV3800093
p348
aV1552612
p349
aV2013546
p350
aV24846278
p351
aV25902222
p352
aV1400361
p353
aV1239582
p354
aV1182597
p355
aV1141131
p356
aV2123175
p357
aV1039516
p358
aV6712457
p359
aV1229952
p360
aV1231187
p361
aV3376757
p362
aV5373022
p363
aV1231847
p364
aV6990284
p365
aV1975937
p366
aV4076215
p367
aV4076214
p368
aV3351565
p369
aV6434328
p370
aV1239756
p371
aV1231692
p372
aV10583161
p373
aV3717867
p374
aV4254163
p375
aV7155000
p376
aV4223579
p377
aV2236050
p378
aV3655511
p379
aV4719202
p380
aV6559158
p381
aV1094413
p382
aV6125551
p383
aV1664147
p384
aV25743117
p385
aV2367867
p386
aV3554481
p387
aV1152958
p388
aV3413617
p389
aV25962840
p390
aV5362028
p391
aV3257711
p392
aV2867949
p393
aV1193565
p394
aV3745904
p395
aV2208572
p396
aV2969369
p397
aV1222347
p398
aV1470544
p399
aV20471120
p400
aV3464889
p401
aV10077056
p402
aV3768550
p403
aV6113958
p404
aV2188111
p405
aV1231346
p406
aV1144541
p407
aV1001389
p408
aV3699395
p409
aV3041178
p410
aV2994636
p411
aV5921462
p412
aV3045415
p413
aV3220004
p414
aV1433491
p415
aV3353209
p416
aV3267945
p417
aV2160659
p418
aV6713152
p419
aV4027938
p420
aV2185076
p421
aV10427807
p422
aV24736505
p423
aV1813974
p424
aV2153786
p425
aV1451989
p426
aV24749903
p427
aV1105697
p428
aV26109676
p429
aV5954810
p430
aV10798931
p431
aV2098492
p432
aV4022870
p433
aV4079399
p434
aV1465336
p435
aV2340952
p436
aV1327100
p437
aV1100723
p438
aV1689876
p439
aV1185229
p440
aV6510671
p441
aV1041459
p442
aV3218937
p443
aV4031899
p444
aV4326057
p445
aV3192043
p446
aV4181350
p447
aV1140926
p448
aV1086496
p449
aV1841346
p450
aV2268475
p451
aV1828752
p452
aV5413305
p453
aV1231706
p454
aV1503909
p455
aV4923181
p456
aV1890415
p457
aV1799652
p458
aV1090708
p459
aV24525708
p460
aV1583799
p461
aV5386169
p462
aV1933068
p463
aV1963318
p464
aV10746086
p465
aV1243747
p466
aV3206718
p467
aV10736908
p468
aV10757203
p469
aV24521449
p470
aV2343820
p471
aV1137278
p472
aV2171700
p473
aV3865371
p474
aV3852290
p475
aV3608181
p476
aV3253845
p477
aV11610880
p478
aV1230420
p479
aV1205456
p480
aV1159438
p481
aV3210781
p482
aV4253716
p483
aV1162021
p484
aV2252151
p485
aV1161000
p486
aV1105582
p487
aV1231236
p488
aV6862061
p489
aV1418564
p490
aV3422711
p491
aV1418566
p492
aV21866396
p493
aV1156799
p494
aV4454525
p495
aV1813960
p496
aV3215918
p497
aV1277302
p498
aV1141200
p499
aV1515908
p500
aV1481173
p501
aV1444801
p502
aV2022470
p503
aV3821205
p504
aV4722707
p505
aV3062610
p506
aV1343008
p507
aV25758064
p508
aV4722597
p509
aV5391996
p510
aV5419835
p511
aV2176665
p512
aV2240260
p513
aV1957226
p514
aV1290506
p515
aV1790308
p516
aV4102289
p517
aV21372237
p518
aV5491853
p519
aV6393021
p520
aV5346169
p521
aV1086083
p522
aV1766652
p523
aV1155507
p524
aV25881855
p525
aV2235509
p526
aV7067149
p527
aV1783551
p528
aV20268969
p529
aV3413850
p530
aV1818536
p531
aV2179813
p532
aV3318871
p533
aV1448494
p534
aV4666193
p535
aV1432323
p536
aV24153577
p537
aV3183305
p538
aV1058576
p539
aV1843085
p540
aV1445082
p541
aV20284332
p542
aV2113215
p543
aV5264518
p544
aV1231833
p545
aV1239865
p546
aV1890129
p547
aV6877342
p548
aV6087548
p549
aV19934344
p550
aV3742896
p551
aV1500027
p552
aV21966324
p553
aV1434831
p554
aV1238029
p555
aV1610323
p556
aV3924175
p557
aV3006856
p558
aV6937989
p559
aV1238033
p560
aV1250957
p561
aV3380985
p562
aV1035710
p563
aV1703283
p564
aV1508997
p565
aV1117593
p566
aV10548379
p567
aV6585090
p568
aV2006913
p569
aV6397551
p570
aV1311807
p571
aV3923739
p572
aV3101726
p573
aV3687057
p574
aV3021156
p575
aV1082709
p576
aV1438119
p577
aV4725662
p578
aV1226135
p579
aV2254621
p580
aV1949168
p581
aV3354855
p582
aV3644727
p583
aV6876925
p584
aV10432364
p585
aV3108801
p586
aV2123349
p587
aV3731314
p588
aV1938837
p589
aV3601671
p590
aV6977773
p591
aV1391072
p592
aV1767188
p593
aV1231286
p594
aV1894611
p595
aV3108799
p596
aV1110907
p597
aV3142953
p598
aV2622073
p599
aV6801681
p600
aV25752043
p601
aV1806659
p602
aV3160804
p603
aV3082246
p604
aV1423728
p605
aV1809211
p606
aV1808611
p607
aV3144826
p608
aV3696694
p609
aV1840211
p610
aV1118973
p611
aV11631324
p612
aV3729677
p613
aV2047490
p614
aV24740308
p615
aV2867955
p616
aV1127970
p617
aV1151462
p618
aV6713354
p619
aV1667309
p620
aV1882500
p621
aV3092676
p622
aV3069630
p623
aV6113963
p624
aV6087508
p625
aV1046080
p626
aV1202143
p627
aV2861636
p628
aV1088157
p629
aV1318884
p630
aV6885949
p631
aV3626223
p632
aV1219472
p633
aV4087596
p634
aV3319935
p635
aV4604857
p636
aV3323633
p637
aV3275412
p638
aV1240321
p639
aV1034711
p640
aV1945005
p641
aV1240328
p642
aV1488758
p643
aV1982886
p644
aV4202975
p645
aV3120034
p646
aV4285988
p647
aV10810344
p648
aV21329264
p649
aV1440437
p650
aV1801090
p651
aV1533435
p652
aV3029610
p653
aV4889830
p654
aV3039216
p655
aV25856314
p656
aV1237371
p657
aV1766581
p658
aV1554354
p659
aV4889838
p660
aV4827126
p661
aV3999726
p662
aV6717678
p663
aV1508471
p664
aV4166071
p665
aV1027528
p666
aV3307652
p667
aV1864527
p668
aV1672554
p669
aV24868490
p670
aV20876182
p671
aV2023146
p672
aV2751144
p673
aV1850560
p674
aV1237544
p675
aV1106342
p676
aV6847469
p677
aV1241281
p678
aV2182176
p679
aV6854551
p680
aV1239992
p681
aV1105362
p682
aV3215919
p683
aV3668161
p684
aV1728779
p685
aV1232057
p686
aV1237578
p687
aV4910583
p688
aV1749601
p689
aV1813552
p690
aV1451172
p691
aV6799555
p692
aV1348581
p693
aV1780005
p694
aV5349816
p695
aV4251875
p696
aV1010406
p697
aV3078298
p698
aV25755508
p699
aV2306849
p700
aV4604858
p701
aV1893525
p702
aV1954037
p703
aV25834852
p704
aV1507524
p705
aV3715700
p706
aV1707585
p707
aV4188453
p708
aV1134061
p709
aV2270318
p710
aV3142173
p711
aV3993592
p712
aV3758969
p713
aV3238803
p714
aV6518457
p715
aV4308685
p716
aV5380974
p717
aV7564094
p718
aV6732187
p719
aV1898098
p720
aV4191516
p721
aV1204448
p722
aV1511568
p723
aV23857303
p724
aV25790111
p725
aV25736276
p726
aV1779429
p727
aV25788945
p728
aV1110425
p729
aV3948352
p730
aV1773585
p731
aV1072313
p732
aV2580604
p733
aV4753930
p734
aV1983275
p735
aV10779597
p736
aV3049700
p737
aV1230060
p738
aV2016789
p739
aV1166484
p740
aV1102259
p741
aV1670376
p742
aV1251067
p743
aV2042328
p744
aV2109679
p745
aV1155470
p746
aV7064456
p747
aV1472137
p748
aV2970072
p749
aV1155307
p750
aV1247412
p751
aV4065592
p752
aV2691073
p753
aV20366373
p754
aV10794788
p755
aV1737145
p756
aV3686503
p757
aV5450806
p758
aV6954094
p759
aV1620641
p760
aV3567628
p761
aV10811940
p762
aV1483756
p763
aV3825208
p764
aV2858392
p765
aV4219798
p766
aV2326543
p767
aV5985030
p768
aV10812787
p769
aV4803982
p770
aV2130743
p771
aV1667526
p772
aV3061966
p773
aV1852437
p774
aV1925455
p775
aV2621917
p776
aV3535837
p777
aV3717547
p778
aV1801393
p779
aV4134842
p780
aV1469315
p781
aV3136781
p782
aV26135794
p783
atp784
Rp785
sS'books_exists'
p786
g11
((lp787
tp788
Rp789
sS'books'
p790
(lp791
sS'parents'
p792
g11
((lp793
tp794
Rp795
sS'tags'
p796
(lp797
g8
aV\u8ba1\u7b97\u673a\u79d1\u5b66
p798
aV\u8ba1\u7b97\u673a\u6280\u672f
p799
asbag1
(g2
g3
Ntp800
Rp801
(dp802
g7
V\u7f51\u7edc
p803
sg9
I2
sg10
g11
((lp804
V1011731
p805
aV1832770
p806
aV1099252
p807
aV3756648
p808
aV3099645
p809
aV1475839
p810
aV1156759
p811
aV3338726
p812
aV1471674
p813
aV1710586
p814
aV2281326
p815
aV6753827
p816
aV1683634
p817
aV3027985
p818
aV1087519
p819
aV3106161
p820
aV1087767
p821
aV2970268
p822
aV21691692
p823
aV1095940
p824
aV3191237
p825
aV1236919
p826
aV10577937
p827
aV1240855
p828
aV3265692
p829
aV1838749
p830
aV1953827
p831
aV1229865
p832
aV3359523
p833
aV1128007
p834
aV2029973
p835
aV1458426
p836
aV1231605
p837
aV1217535
p838
aV4894670
p839
aV24740558
p840
aV2028943
p841
aV1090971
p842
aV1954700
p843
aV1429891
p844
aV1239808
p845
aV1186901
p846
aV2010001
p847
aV1246717
p848
aV1583366
p849
aV11607963
p850
aV3887211
p851
aV1116437
p852
aV4118577
p853
aV6058986
p854
aV1358340
p855
aV1108913
p856
aV1108912
p857
aV1454724
p858
aV25863515
p859
aV1433764
p860
aV3038760
p861
aV1018258
p862
aV3241943
p863
aV3353098
p864
aV2012687
p865
aV1105756
p866
aV1231940
p867
aV3664621
p868
aV1230364
p869
aV1842937
p870
aV3063039
p871
aV4264880
p872
aV1884090
p873
aV4118578
p874
aV1002862
p875
aV1970117
p876
aV24737674
p877
aV1075353
p878
aV1500149
p879
aV1058634
p880
aV1026593
p881
aV1088054
p882
aV1021619
p883
aV2274686
p884
aV3804250
p885
aV1136707
p886
aV3596701
p887
aV2122438
p888
aV1400688
p889
aV3239054
p890
aV1967509
p891
aV10556677
p892
aV3678862
p893
aV3905455
p894
aV3707913
p895
aV1232020
p896
aV2028747
p897
aV1191041
p898
aV1236856
p899
aV10746087
p900
aV1396503
p901
aV1929871
p902
aV1156919
p903
aV1240136
p904
aV1218019
p905
aV2340072
p906
aV2149971
p907
aV10510747
p908
aV1399679
p909
aV1608931
p910
aV1231486
p911
aV5388602
p912
aV1440226
p913
aV4918067
p914
aV3676292
p915
aV1897245
p916
aV1792530
p917
aV1082843
p918
aV4050757
p919
aV1887264
p920
aV4063518
p921
aV10759173
p922
aV4859464
p923
aV1911884
p924
aV1096682
p925
aV1430807
p926
aV1230124
p927
aV2010059
p928
aV4707732
p929
aV1238164
p930
aV3093896
p931
aV3265700
p932
aV1186899
p933
aV2347752
p934
aV1549066
p935
aV1174626
p936
aV3003725
p937
aV4918248
p938
aV4886882
p939
aV2171494
p940
aV5379664
p941
aV1129731
p942
aV6751410
p943
aV1954339
p944
aV26268767
p945
aV1478764
p946
aV10746113
p947
aV1809257
p948
aV3526700
p949
aV2100836
p950
aV6087623
p951
aV2208574
p952
aV3045360
p953
aV2048338
p954
aV25878992
p955
aV25806945
p956
aV2970300
p957
aV4707727
p958
aV4707725
p959
aV2066610
p960
aV3724752
p961
aV1241062
p962
aV1225935
p963
aV1152721
p964
aV1229925
p965
aV10563883
p966
aV1149967
p967
aV3245122
p968
aV3031204
p969
aV2335164
p970
aV2975464
p971
aV6316446
p972
aV3733522
p973
aV6423863
p974
aV5344443
p975
aV25779099
p976
aV3264684
p977
aV2116029
p978
aV1040891
p979
aV1844779
p980
aV1231567
p981
aV1137618
p982
aV1870179
p983
aV4714009
p984
aV1119351
p985
aV1312339
p986
aV2034976
p987
aV1031060
p988
aV1391207
p989
aV24862722
p990
aV4135549
p991
aV2330849
p992
aV2970076
p993
aV1756533
p994
aV1108782
p995
aV1756535
p996
aV1177376
p997
aV5390095
p998
aV1179807
p999
aV3636082
p1000
aV4825522
p1001
aV1086456
p1002
aV6809017
p1003
aV3099190
p1004
aV6797555
p1005
aV1230152
p1006
aV1086595
p1007
aV24852528
p1008
aV5380302
p1009
aV3265202
p1010
aV1763002
p1011
aV2344237
p1012
aV2056320
p1013
aV2306950
p1014
aV1346353
p1015
aV1314941
p1016
aV1237133
p1017
aV2970338
p1018
aV2030982
p1019
aV1102143
p1020
aV1099249
p1021
aV25826915
p1022
aV1880209
p1023
aV1231968
p1024
aV2968802
p1025
aV20480674
p1026
atp1027
Rp1028
sg786
g11
((lp1029
tp1030
Rp1031
sg790
(lp1032
sg792
g11
((lp1033
g5
atp1034
Rp1035
sg796
(lp1036
g803
aVnetwork
p1037
aV\u8ba1\u7b97\u673a\u7f51\u7edc
p1038
asbag1
(g2
g3
Ntp1039
Rp1040
(dp1041
g7
V\u4eba\u5de5\u667a\u80fd
p1042
sg9
I2
sg10
g11
((lp1043
V1313142
p1044
aV1964200
p1045
aV2041530
p1046
aV25953932
p1047
aV1108238
p1048
aV1491268
p1049
aV1754619
p1050
aV1237197
p1051
aV1810352
p1052
aV1530527
p1053
aV3222033
p1054
aV1230487
p1055
aV1433694
p1056
aV1291204
p1057
aV1879505
p1058
aV2138867
p1059
aV2176817
p1060
aV2329404
p1061
aV6855803
p1062
aV3243850
p1063
aV1206206
p1064
aV1141201
p1065
aV1237211
p1066
aV1100792
p1067
aV1229917
p1068
aV4781444
p1069
aV1881546
p1070
aV4000927
p1071
aV10779604
p1072
aV6851207
p1073
aV1356949
p1074
aV1255928
p1075
aV25962694
p1076
aV10794539
p1077
aV3121206
p1078
aV1072147
p1079
aV2133967
p1080
aV3862776
p1081
aV1782675
p1082
aV6749832
p1083
aV1116392
p1084
aV1084946
p1085
aV1291194
p1086
aV1728699
p1087
aV1195595
p1088
aV1246238
p1089
aV1899340
p1090
aV1125484
p1091
aV3587732
p1092
aV2872645
p1093
aV1796440
p1094
aV2031020
p1095
aV2356843
p1096
aV1881552
p1097
aV1834728
p1098
aV1881556
p1099
atp1100
Rp1101
sg786
g11
((lp1102
tp1103
Rp1104
sg790
(lp1105
sg792
g1035
sg796
(lp1106
g1042
asbag1
(g2
g3
Ntp1107
Rp1108
(dp1109
g7
V\u673a\u5668\u5b66\u4e60
p1110
sg9
I3
sg10
g11
((lp1111
V2993376
p1112
aV1146319
p1113
aV4007200
p1114
aV6038927
p1115
aV6725483
p1116
aV1434669
p1117
aV3301935
p1118
aV22139960
p1119
aV22139961
p1120
aV2061116
p1121
aV5250752
p1122
aV2252153
p1123
aV26163454
p1124
aV7963175
p1125
aV2739594
p1126
aV3180810
p1127
aV5286107
p1128
aV1152126
p1129
aV1152129
p1130
aV7055256
p1131
aV3093012
p1132
aV1583370
p1133
aV2882637
p1134
aV4570833
p1135
aV1231995
p1136
aV6440223
p1137
aV1541450
p1138
aV3649744
p1139
aV10590856
p1140
aV1465496
p1141
aV1763633
p1142
aV10758624
p1143
aV1974704
p1144
aV19934150
p1145
aV1763639
p1146
aV3018962
p1147
aV2709185
p1148
aV2862093
p1149
aV4707279
p1150
aV2708965
p1151
aV5273954
p1152
aV3573177
p1153
aV3016091
p1154
aV1964201
p1155
aV3413815
p1156
aV3103714
p1157
aV1888111
p1158
aV6545083
p1159
aV4603803
p1160
aV1705547
p1161
aV4305612
p1162
aV24807529
p1163
aV1229949
p1164
aV3769321
p1165
aV25837140
p1166
aV3605187
p1167
aV1125874
p1168
aV20382134
p1169
aV24735417
p1170
aV1231804
p1171
aV2872405
p1172
aV11226618
p1173
aV21249088
p1174
aV4322261
p1175
aV1230338
p1176
aV1138189
p1177
aV1199577
p1178
aV1822897
p1179
aV2311302
p1180
aV2178320
p1181
aV5410320
p1182
aV3722993
p1183
aV1138922
p1184
aV4879588
p1185
aV7906768
p1186
aV6346890
p1187
aV4530041
p1188
aV4284581
p1189
aV7006719
p1190
aV2249515
p1191
aV3676140
p1192
aV3533623
p1193
aV2340930
p1194
aV10123940
p1195
aV11613104
p1196
aV1105583
p1197
aV24746415
p1198
aV1231232
p1199
aV6853651
p1200
aV6324974
p1201
aV2866455
p1202
aV1172178
p1203
aV21706191
p1204
aV4893547
p1205
aV25864590
p1206
aV3638826
p1207
aV3059637
p1208
aV20471318
p1209
aV3288908
p1210
aV1478252
p1211
aV4753387
p1212
aV5377669
p1213
aV3269549
p1214
aV3639345
p1215
aV2073245
p1216
aV3695850
p1217
aV1820179
p1218
aV1761179
p1219
aV3927560
p1220
aV1399999
p1221
aV1507931
p1222
aV24550921
p1223
aV1789534
p1224
aV1776634
p1225
aV2876188
p1226
aV4321340
p1227
aV1789537
p1228
aV1229991
p1229
aV1788544
p1230
aV2340799
p1231
aV2851790
p1232
aV10344930
p1233
aV2146863
p1234
aV2046630
p1235
aV6533777
p1236
aV2183420
p1237
aV2285151
p1238
aV10831897
p1239
aV3802273
p1240
aV2879899
p1241
aV7154449
p1242
aV1889415
p1243
aV4816562
p1244
aV3574936
p1245
aV1119445
p1246
aV5952531
p1247
aV25847295
p1248
aV4123140
p1249
aV12012001
p1250
aV24251326
p1251
aV1894881
p1252
aV4250559
p1253
aV1171759
p1254
aV1102235
p1255
aV2679104
p1256
aV4140223
p1257
aV2622007
p1258
aV1689549
p1259
aV2622184
p1260
aV3294335
p1261
aV10549440
p1262
aV2584657
p1263
aV1789536
p1264
aV1474132
p1265
aV11026330
p1266
aV10769749
p1267
aV2350178
p1268
aV25867725
p1269
aV2883148
p1270
aV1878509
p1271
aV3578359
p1272
atp1273
Rp1274
sg786
g11
((lp1275
tp1276
Rp1277
sg790
(lp1278
sg792
g11
((lp1279
g1040
ag5
atp1280
Rp1281
sg796
(lp1282
g1110
asbag1
(g2
g3
Ntp1283
Rp1284
(dp1285
g7
V\u9057\u4f20\u7b97\u6cd5
p1286
sg9
I3
sg10
g11
((lp1287
V1071936
p1288
aV1237247
p1289
aV3247543
p1290
aV1655769
p1291
aV1230387
p1292
aV6312474
p1293
atp1294
Rp1295
sg786
g11
((lp1296
tp1297
Rp1298
sg790
(lp1299
sg792
g1281
sg796
(lp1300
g1286
asbag1
(g2
g3
Ntp1301
Rp1302
(dp1303
g7
V\u795e\u7ecf\u7f51\u7edc
p1304
sg9
I3
sg10
g11
((lp1305
g1235
aV2309035
p1306
aV1786120
p1307
aV1220922
p1308
aV3422617
p1309
ag1184
aV1126080
p1310
ag1244
ag1192
aV1968314
p1311
ag1247
ag1216
ag1252
aV4142989
p1312
aV2254879
p1313
aV1277518
p1314
aV2283765
p1315
ag1263
ag1187
aV1115600
p1316
ag1253
aV1484634
p1317
atp1318
Rp1319
sg786
g11
((lp1320
tp1321
Rp1322
sg790
(lp1323
sg792
g1281
sg796
(lp1324
g1304
asbag1
(g2
g3
Ntp1325
Rp1326
(dp1327
g7
V\u63a8\u8350\u7cfb\u7edf
p1328
sg9
I3
sg10
g11
((lp1329
g1166
ag1217
ag1205
ag1267
ag1198
ag1154
ag1182
ag1200
aV10437086
p1330
ag1152
atp1331
Rp1332
sg786
g11
((lp1333
tp1334
Rp1335
sg790
(lp1336
sg792
g1281
sg796
(lp1337
g1328
asbag1
(g2
g3
Ntp1338
Rp1339
(dp1340
g7
V\u81ea\u7136\u8bed\u8a00\u5904\u7406
p1341
sg9
I3
sg10
g11
((lp1342
V2290460
p1343
aV1099516
p1344
aV4861766
p1345
aV3076996
p1346
aV3656584
p1347
aV1512185
p1348
aV1390499
p1349
aV3618926
p1350
aV1321652
p1351
aV2403834
p1352
ag1208
aV1231958
p1353
aV1443993
p1354
aV3200814
p1355
ag1133
aV5373023
p1356
aV1722418
p1357
aV3457877
p1358
aV2401192
p1359
aV1596595
p1360
aV1755959
p1361
ag1137
aV1224802
p1362
aV1102139
p1363
ag1225
aV3624719
p1364
aV4139796
p1365
ag1262
aV3314723
p1366
aV2996106
p1367
aV1134091
p1368
aV1823030
p1369
aV1225631
p1370
aV5364355
p1371
aV1810715
p1372
aV3843369
p1373
aV1512877
p1374
ag1189
aV3987475
p1375
ag1150
atp1376
Rp1377
sg786
g11
((lp1378
tp1379
Rp1380
sg790
(lp1381
sg792
g1281
sg796
(lp1382
g1341
aV\u8ba1\u7b97\u8bed\u8a00\u5b66
p1383
asbag1
(g2
g3
Ntp1384
Rp1385
(dp1386
g7
V\u751f\u6210\u8bed\u8a00\u5b66
p1387
sg9
I4
sg10
g11
((lp1388
V3234095
p1389
aV1229055
p1390
aV1599483
p1391
aV3345788
p1392
aV3748274
p1393
aV1194392
p1394
aV1269646
p1395
aV2009711
p1396
atp1397
Rp1398
sg786
g11
((lp1399
tp1400
Rp1401
sg790
(lp1402
sg792
g11
((lp1403
g1339
ag5
ag1040
atp1404
Rp1405
sg796
(lp1406
g1387
asbag1
(g2
g3
Ntp1407
Rp1408
(dp1409
g7
V\u8bed\u6599\u5e93
p1410
sg9
I4
sg10
g11
((lp1411
V1151986
p1412
aV1235605
p1413
aV1879245
p1414
aV3559268
p1415
aV1103356
p1416
aV5347301
p1417
aV2399656
p1418
aV1232272
p1419
aV1116405
p1420
aV1885290
p1421
aV1235959
p1422
aV1448882
p1423
aV3240502
p1424
atp1425
Rp1426
sg786
g11
((lp1427
tp1428
Rp1429
sg790
(lp1430
sg792
g1405
sg796
(lp1431
g1410
asbag1
(g2
g3
Ntp1432
Rp1433
(dp1434
g7
V\u8bdd\u8bed\u5206\u6790
p1435
sg9
I4
sg10
g11
((lp1436
V1108706
p1437
atp1438
Rp1439
sg786
g11
((lp1440
tp1441
Rp1442
sg790
(lp1443
sg792
g1405
sg796
(lp1444
g1435
asbag1
(g2
g3
Ntp1445
Rp1446
(dp1447
g7
V\u5927\u6570\u636e
p1448
sg9
I2
sg10
g11
((lp1449
V4166691
p1450
aV4817792
p1451
aV25710686
p1452
aV4713670
p1453
aV10863177
p1454
aV2022608
p1455
aV24294210
p1456
aV25662138
p1457
aV1833228
p1458
aV25892080
p1459
aV25775590
p1460
aV2360546
p1461
aV3650828
p1462
aV25747269
p1463
aV25723658
p1464
aV6012151
p1465
aV25706541
p1466
aV18605470
p1467
aV10344400
p1468
aV4049942
p1469
aV2335440
p1470
aV1140879
p1471
aV6025289
p1472
aV25953884
p1473
aV10769712
p1474
aV25842420
p1475
ag808
aV11580128
p1476
aV3215423
p1477
aV25942338
p1478
aV6526319
p1479
aV3529886
p1480
aV6049009
p1481
aV24870504
p1482
aV25841481
p1483
aV11511351
p1484
aV26285268
p1485
aV11542838
p1486
aV6859710
p1487
aV6860889
p1488
aV26284823
p1489
aV10748460
p1490
aV4156940
p1491
aV24533123
p1492
aV20644893
p1493
ag1076
aV6523762
p1494
aV7058781
p1495
aV4212925
p1496
aV25871778
p1497
aV5398077
p1498
aV4191517
p1499
ag1081
aV25774649
p1500
aV4743996
p1501
aV10593478
p1502
aV23066032
p1503
aV24872278
p1504
aV19977785
p1505
aV3192622
p1506
ag974
aV25713315
p1507
aV6780800
p1508
aV11229710
p1509
aV4134843
p1510
aV25837887
p1511
aV4114150
p1512
aV10781829
p1513
aV25808994
p1514
aV24375031
p1515
aV3702712
p1516
aV25743939
p1517
atp1518
Rp1519
sg786
g11
((lp1520
tp1521
Rp1522
sg790
(lp1523
sg792
g1035
sg796
(lp1524
g1448
aV\u4e91\u8ba1\u7b97
p1525
aV\u6570\u636e
p1526
asbag1
(g2
g3
Ntp1527
Rp1528
(dp1529
g7
V\u6570\u636e\u6316\u6398
p1530
sg9
I3
sg10
g11
((lp1531
V2340866
p1532
ag1113
ag1114
aV1216773
p1533
aV11405960
p1534
aV3803611
p1535
ag1118
ag1120
aV1424641
p1536
ag1121
aV4725707
p1537
aV1240592
p1538
aV20429704
p1539
aV24855183
p1540
aV2657610
p1541
ag1192
aV7926372
p1542
aV25791255
p1543
ag1128
aV25852485
p1544
ag1129
ag1130
aV25873705
p1545
aV25901568
p1546
aV4605951
p1547
aV3608319
p1548
ag1132
aV1465939
p1549
aV21477429
p1550
aV11229683
p1551
aV24715620
p1552
aV4907691
p1553
aV5257905
p1554
ag1135
aV4999411
p1555
ag1137
aV10125896
p1556
aV5391582
p1557
aV6813329
p1558
aV6906654
p1559
ag1140
aV19952397
p1560
aV4015689
p1561
aV10733001
p1562
aV1756106
p1563
aV6113968
p1564
aV4730317
p1565
ag1143
aV6873627
p1566
ag1370
ag1145
aV1232084
p1567
aV1231817
p1568
aV4738079
p1569
ag1150
aV4709319
p1570
aV7161527
p1571
ag1155
ag1156
aV24807541
p1572
aV1551455
p1573
aV17539733
p1574
ag1251
aV4853379
p1575
ag1159
ag1160
aV12053751
p1576
aV1246418
p1577
aV3393769
p1578
ag1162
aV20383810
p1579
aV24738300
p1580
ag1349
ag1166
aV2038599
p1581
aV25834502
p1582
aV1881631
p1583
aV3852284
p1584
aV2293707
p1585
aV3187204
p1586
ag1169
ag1170
aV24699632
p1587
ag1173
aV5370365
p1588
aV1103515
p1589
aV4013309
p1590
ag1177
aV6720706
p1591
ag1178
ag1310
aV1683987
p1592
aV1312415
p1593
aV3648696
p1594
aV4704059
p1595
aV10799984
p1596
ag1182
aV5272139
p1597
ag1233
ag1293
aV22226818
p1598
ag1185
aV4927631
p1599
aV11681408
p1600
aV1455721
p1601
ag1152
ag1234
aV3596042
p1602
aV6439420
p1603
ag1190
ag1191
ag1193
ag1194
aV1239401
p1604
ag1115
aV1933078
p1605
aV11026207
p1606
aV10462720
p1607
ag1198
aV1230141
p1608
aV24748670
p1609
ag1154
aV25985523
p1610
ag1200
ag1201
aV26284706
p1611
ag1203
aV11523058
p1612
aV20259696
p1613
ag1204
ag1205
aV7056708
p1614
ag1209
ag1210
aV2867348
p1615
aV20382244
p1616
aV3129057
p1617
aV6414998
p1618
ag1213
aV1231593
p1619
aV1481177
p1620
ag1215
aV6397441
p1621
aV24693051
p1622
aV1090601
p1623
aV10560282
p1624
ag1217
ag1218
aV4217238
p1625
ag1219
aV3738020
p1626
aV25725945
p1627
ag1221
aV24250054
p1628
aV1996643
p1629
aV1926538
p1630
aV22846521
p1631
aV11542972
p1632
ag1313
aV4727311
p1633
aV4710824
p1634
aV4866579
p1635
aV1089225
p1636
aV5299521
p1637
aV2280232
p1638
aV2216277
p1639
aV21372236
p1640
aV24745216
p1641
ag1229
aV1785313
p1642
ag1231
ag1239
aV1138051
p1643
aV25717332
p1644
aV6072294
p1645
aV20429677
p1646
ag1236
aV3729518
p1647
aV1230154
p1648
ag1307
ag1238
aV5319449
p1649
ag1290
aV24744419
p1650
aV24153573
p1651
aV3995803
p1652
aV5252170
p1653
aV3283973
p1654
aV7010053
p1655
ag1240
aV1482000
p1656
ag1242
ag1352
aV1463951
p1657
aV4110619
p1658
aV20172461
p1659
aV10737444
p1660
aV3031270
p1661
aV1161636
p1662
aV2364664
p1663
ag1136
aV25791981
p1664
aV3029844
p1665
aV24718711
p1666
aV6060301
p1667
aV2062183
p1668
aV5269219
p1669
ag1220
aV25735039
p1670
aV3063013
p1671
ag1255
ag1257
aV2627307
p1672
aV1843100
p1673
aV1246297
p1674
aV1809231
p1675
ag1259
aV1463952
p1676
ag1261
aV10575969
p1677
aV3661214
p1678
ag1265
ag1266
aV1320174
p1679
aV4312608
p1680
ag1267
aV1128377
p1681
ag1268
aV2016015
p1682
aV5921470
p1683
aV4601710
p1684
ag1375
aV4898375
p1685
ag1272
atp1686
Rp1687
sg786
g11
((lp1688
tp1689
Rp1690
sg790
(lp1691
sg792
g11
((lp1692
g1446
ag5
atp1693
Rp1694
sg796
(lp1695
g1530
asbag1
(g2
g3
Ntp1696
Rp1697
(dp1698
g7
V\u6570\u636e\u53ef\u89c6\u5316
p1699
sg9
I3
sg10
g11
((lp1700
g1608
aV23855771
p1701
aV26292264
p1702
ag1223
ag1651
ag1609
aV10798507
p1703
aV4020885
p1704
aV5969455
p1705
ag1616
aV20444435
p1706
aV24719002
p1707
ag1669
aV20274559
p1708
aV10435804
p1709
aV4776049
p1710
aV3102730
p1711
aV3168355
p1712
ag1560
aV20022275
p1713
aV25755879
p1714
aV4237853
p1715
aV10877588
p1716
ag1603
aV2861790
p1717
atp1718
Rp1719
sg786
g11
((lp1720
tp1721
Rp1722
sg790
(lp1723
sg792
g1694
sg796
(lp1724
g1699
asbag1
(g2
g3
Ntp1725
Rp1726
(dp1727
g7
V\u6570\u636e\u4ed3\u5e93
p1728
sg9
I3
sg10
g11
((lp1729
g1577
ag1581
aV4088039
p1730
ag1583
ag1567
aV4619408
p1731
ag1675
aV1147359
p1732
aV10528449
p1733
aV1441156
p1734
aV1138273
p1735
aV1159178
p1736
aV1013792
p1737
aV26220188
p1738
aV1980849
p1739
ag1674
aV5250765
p1740
aV2667055
p1741
ag1639
ag1645
ag1604
atp1742
Rp1743
sg786
g11
((lp1744
tp1745
Rp1746
sg790
(lp1747
sg792
g1694
sg796
(lp1748
g1728
asbag1
(g2
g3
Ntp1749
Rp1750
(dp1751
g7
V\u8f6f\u4ef6
p1752
sg9
I2
sg10
g11
((lp1753
V2149642
p1754
aV5312116
p1755
aV3066852
p1756
aV1822196
p1757
aV1456903
p1758
aV1024478
p1759
ag810
aV3840202
p1760
aV1737686
p1761
aV1941193
p1762
aV2149728
p1763
aV1799317
p1764
aV4703792
p1765
aV24284008
p1766
aV1186994
p1767
aV1108848
p1768
aV4665783
p1769
aV3229992
p1770
aV1929984
p1771
aV1441780
p1772
aV6688827
p1773
aV17802579
p1774
aV3038677
p1775
aV3993659
p1776
aV1105502
p1777
aV1174326
p1778
aV3769383
p1779
aV4934481
p1780
aV20440543
p1781
aV1244381
p1782
aV6021440
p1783
aV1949853
p1784
aV1481790
p1785
aV2082179
p1786
aV3908488
p1787
aV2082177
p1788
aV4924164
p1789
aV3351935
p1790
aV4725273
p1791
aV2007202
p1792
aV5406042
p1793
aV1418618
p1794
aV4886879
p1795
aV24737847
p1796
aV2261454
p1797
aV3993533
p1798
aV4297548
p1799
aV4865048
p1800
aV25892728
p1801
aV3273140
p1802
aV25752357
p1803
aV3182110
p1804
aV3577839
p1805
aV3788013
p1806
ag1090
aV2118632
p1807
aV5346199
p1808
aV10789820
p1809
aV2071057
p1810
aV1231815
p1811
aV25723064
p1812
aV3667577
p1813
aV2994946
p1814
aV3410946
p1815
aV1909192
p1816
aV5273955
p1817
aV3205982
p1818
aV3870385
p1819
aV3171434
p1820
aV1152971
p1821
aV1237849
p1822
aV4291405
p1823
aV4291404
p1824
aV1764254
p1825
aV20370984
p1826
aV4821286
p1827
aV2193777
p1828
aV2688959
p1829
aV3660156
p1830
ag879
aV2029866
p1831
aV4037534
p1832
aV4149600
p1833
aV10789296
p1834
aV4254318
p1835
aV1401498
p1836
aV6024321
p1837
aV2123092
p1838
ag889
aV4289836
p1839
aV4111413
p1840
aV1246450
p1841
aV3830700
p1842
aV1157259
p1843
aV3709579
p1844
aV3035138
p1845
aV6525423
p1846
aV10547007
p1847
aV1229986
p1848
aV4163938
p1849
aV1230036
p1850
aV4024318
p1851
aV6430747
p1852
aV26260359
p1853
aV1876898
p1854
aV10813224
p1855
aV4290107
p1856
aV25836388
p1857
aV1477390
p1858
aV1101502
p1859
aV3296317
p1860
aV1766670
p1861
aV1764900
p1862
aV4861462
p1863
aV2110813
p1864
aV1235568
p1865
aV5917267
p1866
aV5407246
p1867
aV3023631
p1868
aV2249511
p1869
aV6915837
p1870
aV4238751
p1871
aV1931540
p1872
aV2985886
p1873
aV6519536
p1874
aV3082278
p1875
aV1850497
p1876
aV3413859
p1877
aV2974431
p1878
aV3590768
p1879
aV4838430
p1880
aV1458135
p1881
aV1449347
p1882
aV10538023
p1883
aV3353536
p1884
aV6097773
p1885
aV4872186
p1886
aV3764948
p1887
aV19986437
p1888
aV3082293
p1889
aV1763714
p1890
ag1058
aV2036942
p1891
aV1239849
p1892
aV1140942
p1893
aV4754651
p1894
aV1998341
p1895
aV4292217
p1896
aV1834458
p1897
aV3344305
p1898
ag1480
aV4083265
p1899
aV1790225
p1900
aV1866231
p1901
aV6959485
p1902
aV7517408
p1903
aV20469441
p1904
aV10793898
p1905
aV1764673
p1906
aV1230450
p1907
aV2304402
p1908
ag1494
aV1456905
p1909
aV1456906
p1910
aV6052175
p1911
aV2269648
p1912
aV10797189
p1913
aV4908230
p1914
aV4166546
p1915
aV3356185
p1916
ag911
aV3031576
p1917
aV1845284
p1918
aV7070650
p1919
aV6969714
p1920
aV1236944
p1921
aV6146346
p1922
aV1771049
p1923
aV25884108
p1924
aV2121454
p1925
aV1241288
p1926
aV1788421
p1927
aV5303032
p1928
aV3423021
p1929
aV1456069
p1930
aV6799412
p1931
aV2054931
p1932
aV1435956
p1933
aV4842433
p1934
ag976
aV1775608
p1935
aV1919816
p1936
aV4144438
p1937
aV1919818
p1938
aV3078235
p1939
aV10863118
p1940
ag982
aV1139244
p1941
aV1848301
p1942
aV6688826
p1943
aV1927754
p1944
aV2014293
p1945
ag983
aV3332698
p1946
aV1440149
p1947
aV20556210
p1948
aV7052418
p1949
aV1951158
p1950
aV1726085
p1951
aV3917775
p1952
aV1141221
p1953
aV1320878
p1954
aV2124377
p1955
aV2360138
p1956
aV10796774
p1957
aV11154471
p1958
aV4282585
p1959
aV5372326
p1960
aV4924165
p1961
aV3259420
p1962
aV1432042
p1963
aV2230248
p1964
aV1446928
p1965
aV6730901
p1966
aV4713059
p1967
aV5301287
p1968
aV1801279
p1969
aV1241361
p1970
aV2011397
p1971
aV5907794
p1972
aV1119873
p1973
aV1436811
p1974
aV1142213
p1975
aV5402021
p1976
aV1271597
p1977
aV25844633
p1978
aV3424887
p1979
aV3687859
p1980
aV1225638
p1981
aV3904997
p1982
aV5338025
p1983
aV1161027
p1984
aV2031396
p1985
aV5442024
p1986
aV3783178
p1987
aV24868904
p1988
aV1102677
p1989
ag1451
aV1908201
p1990
aV3788437
p1991
aV4164024
p1992
aV4136857
p1993
aV2275104
p1994
aV7061934
p1995
aV1504650
p1996
aV1052714
p1997
aV2029729
p1998
aV2029728
p1999
aV1231670
p2000
aV10564252
p2001
aV1231579
p2002
aV10591096
p2003
aV7915128
p2004
aV10750114
p2005
aV1224812
p2006
aV25724948
p2007
aV2144787
p2008
aV3815487
p2009
aV3210669
p2010
aV4745287
p2011
aV4262627
p2012
aV1494471
p2013
aV1461058
p2014
aV3519352
p2015
ag925
aV1231603
p2016
aV2365029
p2017
aV3350010
p2018
aV2334295
p2019
aV1237311
p2020
aV3143256
p2021
aV6126331
p2022
aV1473295
p2023
aV1879443
p2024
aV2152385
p2025
aV24538385
p2026
aV24538384
p2027
ag1509
aV5442971
p2028
aV1609732
p2029
aV4086029
p2030
aV1243847
p2031
aV10442875
p2032
aV1136473
p2033
aV1236987
p2034
aV3649501
p2035
aV1220624
p2036
aV10541112
p2037
aV25839814
p2038
aV4046183
p2039
aV3411497
p2040
aV1231894
p2041
aV6760199
p2042
aV3014491
p2043
aV11501595
p2044
aV25852490
p2045
aV2148972
p2046
ag1007
aV4888400
p2047
aV1692629
p2048
aV1417047
p2049
aV1439495
p2050
ag859
aV3012601
p2051
aV4047041
p2052
aV1845269
p2053
aV20270351
p2054
aV3271104
p2055
aV2007178
p2056
aV1060714
p2057
aV11540736
p2058
aV3743526
p2059
aV1409728
p2060
aV2004867
p2061
aV25710483
p2062
aV4923179
p2063
aV1499012
p2064
aV1134994
p2065
aV2994925
p2066
ag1469
aV5974281
p2067
aV4311129
p2068
aV10463039
p2069
aV6038371
p2070
aV3022779
p2071
aV1137262
p2072
aV3043735
p2073
aV2280936
p2074
aV1230410
p2075
aV25942191
p2076
aV1230413
p2077
aV5383253
p2078
aV6078710
p2079
aV1442019
p2080
aV1113046
p2081
aV3150470
p2082
aV1432162
p2083
aV1282571
p2084
aV4719159
p2085
aV1954238
p2086
aV2160126
p2087
aV1490539
p2088
aV1786118
p2089
aV3310826
p2090
aV5955908
p2091
aV1733512
p2092
aV3673223
p2093
aV3422703
p2094
aV6727873
p2095
aV7064379
p2096
aV5355285
p2097
aV5951422
p2098
aV1189850
p2099
ag1464
aV2307291
p2100
aV1470267
p2101
aV4025390
p2102
aV6524000
p2103
aV6042622
p2104
aV4090200
p2105
aV1460848
p2106
aV5398926
p2107
aV10747833
p2108
aV10494340
p2109
aV2247991
p2110
aV1922702
p2111
aV4320664
p2112
aV3151486
p2113
aV1778003
p2114
aV10750155
p2115
aV3244090
p2116
aV1479412
p2117
aV1100726
p2118
aV2208535
p2119
aV2287506
p2120
aV3065385
p2121
aV2116203
p2122
aV7564417
p2123
aV26268552
p2124
aV3073403
p2125
aV1169091
p2126
aV1422377
p2127
aV24522045
p2128
aV1231934
p2129
aV20277919
p2130
aV11442031
p2131
aV1188507
p2132
aV2382413
p2133
aV10549733
p2134
aV1872091
p2135
aV1756093
p2136
aV1821377
p2137
aV5332356
p2138
aV1054258
p2139
aV10564828
p2140
aV6118040
p2141
aV19894872
p2142
aV6954116
p2143
aV25899841
p2144
aV3885224
p2145
aV5243513
p2146
aV1232007
p2147
aV3693851
p2148
aV1737546
p2149
aV5432475
p2150
aV25869486
p2151
aV3259433
p2152
aV2252374
p2153
ag958
ag959
aV3572917
p2154
aV3424146
p2155
aV3224524
p2156
aV1229923
p2157
aV1498484
p2158
aV1828668
p2159
aV11231811
p2160
ag965
aV19973015
p2161
aV3263978
p2162
aV1995760
p2163
aV6109479
p2164
aV4114152
p2165
aV7053684
p2166
aV20506772
p2167
aV10792216
p2168
aV2142614
p2169
aV2007653
p2170
aV3354490
p2171
aV4099306
p2172
aV6041803
p2173
aV2864217
p2174
aV1138536
p2175
aV1416743
p2176
aV1596067
p2177
ag981
aV1836464
p2178
aV3176860
p2179
ag1457
aV1318683
p2180
aV14263115
p2181
aV25774746
p2182
aV10511247
p2183
aV25916519
p2184
aV1688114
p2185
aV4747758
p2186
ag1466
aV2287040
p2187
aV2858461
p2188
aV4143105
p2189
aV4143106
p2190
aV5323931
p2191
aV20507399
p2192
aV1839273
p2193
aV1228179
p2194
aV20499192
p2195
aV4183808
p2196
aV1467793
p2197
ag1465
ag998
aV3229243
p2198
aV1808399
p2199
aV2584701
p2200
aV4829597
p2201
aV1230514
p2202
aV25768396
p2203
aV3723474
p2204
aV3794471
p2205
ag1002
aV1229959
p2206
aV1173730
p2207
ag1485
aV1767120
p2208
aV21357366
p2209
aV4912556
p2210
aV2031568
p2211
aV6823545
p2212
aV1431970
p2213
aV3652388
p2214
aV1940693
p2215
aV3670621
p2216
aV11530748
p2217
aV7055331
p2218
aV1392483
p2219
aV1231190
p2220
aV6902577
p2221
aV11589828
p2222
aV6129172
p2223
aV10763142
p2224
aV25791952
p2225
aV1494026
p2226
aV1229948
p2227
aV3948373
p2228
aV5362857
p2229
aV4287404
p2230
aV1231884
p2231
aV2751184
p2232
ag1022
aV1771051
p2233
aV2298380
p2234
aV21327962
p2235
aV1438756
p2236
aV3109238
p2237
aV1783543
p2238
aV1314538
p2239
aV3688342
p2240
aV2003026
p2241
aV3726879
p2242
aV3012421
p2243
aV1444652
p2244
aV23820913
p2245
aV3748381
p2246
aV3260609
p2247
aV25711796
p2248
aV1432501
p2249
aV1099251
p2250
aV1461786
p2251
aV3154784
p2252
aV1866824
p2253
aV5355259
p2254
aV3071344
p2255
aV6531663
p2256
aV1751951
p2257
aV10546125
p2258
aV10831542
p2259
aV1481218
p2260
aV1247600
p2261
aV10733304
p2262
aV4253683
p2263
aV3558788
p2264
aV19961277
p2265
aV2307657
p2266
aV3288657
p2267
aV3989100
p2268
aV21332443
p2269
aV1721522
p2270
aV3349653
p2271
aV3134548
p2272
aV4822685
p2273
aV4746684
p2274
aV1229902
p2275
aV1547071
p2276
aV10439364
p2277
aV1231667
p2278
aV5333562
p2279
ag1076
aV3007076
p2280
aV1977885
p2281
aV7564420
p2282
aV1105381
p2283
aV1775000
p2284
aV1024570
p2285
aV4031961
p2286
aV5263681
p2287
ag853
ag854
aV6126937
p2288
aV25826578
p2289
ag874
aV1092099
p2290
aV5258655
p2291
aV3758159
p2292
aV5992483
p2293
aV3016492
p2294
aV3862728
p2295
aV1908824
p2296
aV11609943
p2297
aV1397547
p2298
aV1106216
p2299
aV1151672
p2300
ag923
aV1473166
p2301
aV6715378
p2302
aV4200822
p2303
aV10793952
p2304
aV3340913
p2305
aV10599776
p2306
aV1467587
p2307
aV3815583
p2308
aV3337668
p2309
aV3735649
p2310
ag877
aV3052723
p2311
aV1472607
p2312
ag994
aV4199741
p2313
aV2280139
p2314
aV1088057
p2315
aV6068947
p2316
aV2077945
p2317
aV10205851
p2318
aV4737467
p2319
aV2995420
p2320
aV3781532
p2321
aV3770255
p2322
aV3998731
p2323
aV6854549
p2324
aV1723351
p2325
aV2980837
p2326
aV3203499
p2327
aV1869705
p2328
ag1068
aV2248759
p2329
ag897
aV19972642
p2330
aV1231247
p2331
aV1395495
p2332
aV2239496
p2333
aV4719230
p2334
aV1793123
p2335
aV6800774
p2336
aV1432683
p2337
aV1776614
p2338
aV1240427
p2339
aV6875294
p2340
aV1632977
p2341
aV1787103
p2342
aV2041809
p2343
aV25965995
p2344
aV1506311
p2345
aV25920214
p2346
aV1033144
p2347
aV4739317
p2348
aV25921819
p2349
aV1660925
p2350
aV25868289
p2351
aV3012910
p2352
aV6895075
p2353
aV3142280
p2354
aV5402711
p2355
aV1838788
p2356
ag931
aV1236825
p2357
aV1236824
p2358
ag932
aV3545625
p2359
aV1495763
p2360
aV3335419
p2361
aV3810446
p2362
aV20440928
p2363
aV1859488
p2364
aV4745128
p2365
aV1837454
p2366
aV3265697
p2367
aV25882606
p2368
aV2208575
p2369
ag939
aV10770080
p2370
aV4224978
p2371
aV1981776
p2372
aV1218873
p2373
aV21370593
p2374
aV1369862
p2375
aV3094532
p2376
aV1450763
p2377
aV1099112
p2378
aV24669819
p2379
aV4740662
p2380
aV2006050
p2381
aV3228884
p2382
aV1101807
p2383
aV4892841
p2384
aV10598050
p2385
aV1957558
p2386
aV2254610
p2387
aV4213190
p2388
aV1868192
p2389
aV3851800
p2390
ag813
aV1097661
p2391
aV1230057
p2392
aV3519368
p2393
aV1467839
p2394
aV1462576
p2395
aV3274597
p2396
aV3519360
p2397
aV21372235
p2398
aV1484636
p2399
aV7055340
p2400
aV10483059
p2401
aV5991174
p2402
aV1850938
p2403
aV1265680
p2404
aV11614538
p2405
aV19961280
p2406
aV7007204
p2407
aV10956515
p2408
aV5338398
p2409
aV2354769
p2410
aV1231697
p2411
aV25752512
p2412
aV4006441
p2413
aV19994024
p2414
aV1101522
p2415
aV5263109
p2416
aV1855953
p2417
aV24153574
p2418
ag985
aV3000469
p2419
aV3191962
p2420
aV1219022
p2421
aV5262856
p2422
aV2303999
p2423
aV3129340
p2424
aV2584455
p2425
aV1754490
p2426
aV3692833
p2427
aV4190841
p2428
aV4754738
p2429
aV19976838
p2430
aV10417500
p2431
aV2023370
p2432
ag996
aV1138537
p2433
aV2043236
p2434
aV25748470
p2435
aV1921890
p2436
aV2363803
p2437
aV3671497
p2438
aV1723151
p2439
aV1340507
p2440
aV3354137
p2441
aV20256291
p2442
aV2028769
p2443
aV4305096
p2444
aV2336183
p2445
aV1231794
p2446
aV1416436
p2447
aV3151766
p2448
aV3088353
p2449
aV2213296
p2450
aV4738788
p2451
aV6310125
p2452
aV3710273
p2453
aV10597970
p2454
aV1240500
p2455
aV10076960
p2456
aV1124561
p2457
aV1231874
p2458
aV5353163
p2459
aV1899158
p2460
aV7159032
p2461
aV3245826
p2462
aV2023107
p2463
aV1968671
p2464
aV1088168
p2465
aV2044818
p2466
aV2044819
p2467
aV1152111
p2468
aV5376270
p2469
aV1246086
p2470
aV4516143
p2471
aV3446112
p2472
aV1426838
p2473
aV4225167
p2474
aV4046371
p2475
aV3715754
p2476
aV6398127
p2477
aV1760738
p2478
aV1858564
p2479
aV5372651
p2480
aV23008813
p2481
aV2285930
p2482
aV19930393
p2483
aV1099124
p2484
ag1498
aV3033296
p2485
aV1419734
p2486
aV1896792
p2487
aV3161831
p2488
aV3238699
p2489
aV10542576
p2490
aV21705881
p2491
aV4897429
p2492
aV1230486
p2493
aV1268653
p2494
aV1439934
p2495
ag821
aV4595495
p2496
aV2567634
p2497
aV6025287
p2498
aV6801489
p2499
aV4517926
p2500
aV19992849
p2501
aV1610224
p2502
aV5273949
p2503
aV1141154
p2504
aV1467264
p2505
aV7070603
p2506
aV3568327
p2507
aV1876375
p2508
aV6889456
p2509
aV1151348
p2510
ag1486
aV3065901
p2511
aV4034981
p2512
aV1787855
p2513
aV3993677
p2514
aV6783748
p2515
aV3032825
p2516
aV1824542
p2517
aV4030327
p2518
aV4937201
p2519
aV1390650
p2520
aV1434776
p2521
aV1002339
p2522
aV2252163
p2523
aV1988116
p2524
aV25786138
p2525
ag1505
aV24722611
p2526
aV2969555
p2527
aV2124452
p2528
aV1007738
p2529
aV24298701
p2530
aV6560927
p2531
aV4047293
p2532
aV3333561
p2533
aV1230513
p2534
aV5924992
p2535
aV6958601
p2536
aV2059158
p2537
aV1223070
p2538
aV25931006
p2539
aV4264074
p2540
aV2003164
p2541
aV1819768
p2542
aV3877441
p2543
aV3157371
p2544
aV1819828
p2545
aV3582684
p2546
aV4031959
p2547
aV6782443
p2548
aV1547078
p2549
ag1487
aV22601258
p2550
aV4743790
p2551
aV3988968
p2552
aV4127895
p2553
aV1747866
p2554
aV3992876
p2555
aV3625146
p2556
aV3413672
p2557
aV1156148
p2558
aV5387402
p2559
aV1451622
p2560
aV10599786
p2561
ag1470
aV5387404
p2562
ag883
ag1473
aV1237844
p2563
aV2307109
p2564
aV1474114
p2565
aV4833653
p2566
aV3841202
p2567
aV3246500
p2568
aV11611022
p2569
aV3216811
p2570
aV11874748
p2571
aV4214617
p2572
aV1465326
p2573
aV6526454
p2574
aV1562756
p2575
aV4263550
p2576
aV25767596
p2577
aV2123090
p2578
aV3756977
p2579
aV4935260
p2580
aV3035267
p2581
aV1420357
p2582
aV4269325
p2583
aV1238178
p2584
aV2702410
p2585
ag906
aV3093430
p2586
aV1148282
p2587
aV1194565
p2588
aV1088045
p2589
aV1105363
p2590
aV3646112
p2591
aV3875877
p2592
aV3346905
p2593
aV5344973
p2594
aV1565763
p2595
aV4212867
p2596
aV1974562
p2597
aV6517501
p2598
aV1776247
p2599
aV1409315
p2600
aV3687074
p2601
aV10586326
p2602
aV10599300
p2603
aV1475893
p2604
aV6981960
p2605
aV1770051
p2606
aV1493443
p2607
aV2002916
p2608
aV2030712
p2609
aV1924288
p2610
aV1230448
p2611
aV2032343
p2612
aV21792530
p2613
aV1230431
p2614
aV1758656
p2615
aV2983491
p2616
ag1050
aV1503820
p2617
aV10511550
p2618
aV4111399
p2619
aV5992544
p2620
aV6779424
p2621
aV4265432
p2622
aV24319975
p2623
aV1061546
p2624
aV1425823
p2625
aV1231133
p2626
aV25829244
p2627
aV3425861
p2628
ag936
aV19962787
p2629
aV1106301
p2630
aV2368647
p2631
aV3152110
p2632
aV11522817
p2633
aV3549421
p2634
aV1776249
p2635
aV1231435
p2636
aV1962301
p2637
aV4935288
p2638
aV1433489
p2639
aV1230430
p2640
aV1422056
p2641
aV1231822
p2642
aV20270752
p2643
aV1424200
p2644
aV1231821
p2645
ag947
aV26248211
p2646
aV3631935
p2647
aV1187371
p2648
aV11610941
p2649
aV2208603
p2650
aV2014421
p2651
aV25957237
p2652
aV2128062
p2653
aV3057671
p2654
aV10483197
p2655
aV3624015
p2656
aV6751311
p2657
aV1102251
p2658
aV6515839
p2659
aV5416783
p2660
aV4231292
p2661
aV6806862
p2662
aV4086938
p2663
aV1880694
p2664
aV3269865
p2665
aV1793749
p2666
aV4934648
p2667
aV6114391
p2668
aV3049085
p2669
aV6075127
p2670
aV3228760
p2671
aV25843224
p2672
aV1958256
p2673
aV4895627
p2674
aV11229716
p2675
aV1093835
p2676
aV10617395
p2677
aV6756090
p2678
aV3290016
p2679
aV4768014
p2680
aV10736899
p2681
aV10593496
p2682
aV3908324
p2683
aV3609409
p2684
aV5988151
p2685
aV25782512
p2686
aV6114900
p2687
aV6524185
p2688
aV1957461
p2689
aV6860890
p2690
aV6693078
p2691
aV1105484
p2692
aV6782272
p2693
aV1237806
p2694
aV2347640
p2695
aV6433806
p2696
aV1418356
p2697
aV3020141
p2698
aV5250774
p2699
aV1099376
p2700
aV2029980
p2701
aV1418351
p2702
aV5367372
p2703
aV4941558
p2704
aV1231142
p2705
aV6735969
p2706
aV4152848
p2707
aV2062857
p2708
aV2109775
p2709
aV1323748
p2710
aV2285023
p2711
aV4774858
p2712
aV4805165
p2713
aV4732250
p2714
aV3851892
p2715
aV4089837
p2716
aV3062309
p2717
aV1106304
p2718
aV5407921
p2719
aV3260311
p2720
aV1232061
p2721
aV1761742
p2722
aV1896753
p2723
aV3249486
p2724
aV1958938
p2725
aV24703731
p2726
aV5387401
p2727
aV2067787
p2728
aV2372267
p2729
aV6880016
p2730
aV3740003
p2731
aV6781677
p2732
aV1872311
p2733
aV11545630
p2734
aV3182419
p2735
aV2154713
p2736
aV3351248
p2737
aV4042752
p2738
aV4156312
p2739
aV1192649
p2740
aV1503819
p2741
ag1024
aV3318058
p2742
aV3134515
p2743
aV1173548
p2744
aV4196842
p2745
atp2746
Rp2747
sg786
g11
((lp2748
tp2749
Rp2750
sg790
(lp2751
sg792
g1035
sg796
(lp2752
g1752
aV\u7a0b\u5e8f\u8bbe\u8ba1
p2753
aV\u7f16\u7a0b
p2754
aV\u7a0b\u5e8f\u5f00\u53d1
p2755
aVprogramming
p2756
asbag1
(g2
g3
Ntp2757
Rp2758
(dp2759
g7
V\u7248\u672c\u63a7\u5236
p2760
sg9
I3
sg10
g11
((lp2761
V3420144
p2762
aV6526452
p2763
aV26208470
p2764
aV24752672
p2765
aV5351195
p2766
aV1313341
p2767
aV4813786
p2768
aV2038779
p2769
aV5311565
p2770
aV1799659
p2771
atp2772
Rp2773
sg786
g11
((lp2774
tp2775
Rp2776
sg790
(lp2777
sg792
g11
((lp2778
g1750
ag5
atp2779
Rp2780
sg796
(lp2781
g2760
asbag1
(g2
g3
Ntp2782
Rp2783
(dp2784
g7
V\u6e38\u620f\u7f16\u7a0b
p2785
sg9
I3
sg10
g11
((lp2786
V4306242
p2787
aV1516800
p2788
aV1321769
p2789
aV3745143
p2790
aV1246350
p2791
aV1125738
p2792
aV10785711
p2793
aV2377579
p2794
aV1480239
p2795
aV3076942
p2796
aV1400419
p2797
aV3213439
p2798
aV20269879
p2799
aV1230037
p2800
aV1831697
p2801
aV2248414
p2802
aV1475693
p2803
aV1454723
p2804
aV1831698
p2805
aV3561816
p2806
aV3081930
p2807
aV2228878
p2808
aV1230286
p2809
atp2810
Rp2811
sg786
g11
((lp2812
tp2813
Rp2814
sg790
(lp2815
sg792
g2780
sg796
(lp2816
g2785
asbag1
(g2
g3
Ntp2817
Rp2818
(dp2819
g7
V\u624b\u673a\u5f00\u53d1
p2820
sg9
I3
sg10
g11
((lp2821
V6392055
p2822
aV3604295
p2823
aV4863525
p2824
aV4251755
p2825
aV3864073
p2826
aV4111365
p2827
atp2828
Rp2829
sg786
g11
((lp2830
tp2831
Rp2832
sg790
(lp2833
sg792
g2780
sg796
(lp2834
g2820
asbag1
(g2
g3
Ntp2835
Rp2836
(dp2837
g7
V\u5d4c\u5165\u5f0f
p2838
sg9
I3
sg10
g11
((lp2839
V5404177
p2840
aV5938225
p2841
aV2050790
p2842
aV4772521
p2843
aV10599779
p2844
aV2112597
p2845
aV2654556
p2846
aV1170845
p2847
aV1909558
p2848
aV3152027
p2849
aV1240025
p2850
aV3633337
p2851
aV2307683
p2852
aV2984156
p2853
aV21794917
p2854
aV1231429
p2855
aV2304532
p2856
atp2857
Rp2858
sg786
g11
((lp2859
tp2860
Rp2861
sg790
(lp2862
sg792
g2780
sg796
(lp2863
g2838
asbag1
(g2
g3
Ntp2864
Rp2865
(dp2866
g7
V\u7f16\u7a0b\u8bed\u8a00
p2867
sg9
I3
sg10
g11
((lp2868
V3066858
p2869
aV1923716
p2870
aV1574388
p2871
aV25780764
p2872
aV2337297
p2873
aV1998905
p2874
aV6859720
p2875
aV1232075
p2876
aV10555435
p2877
aV4743794
p2878
aV3644726
p2879
aV19992840
p2880
aV3338270
p2881
aV25911182
p2882
aV4214143
p2883
aV3136252
p2884
aV1290512
p2885
aV1318672
p2886
aV5412750
p2887
aV3403816
p2888
aV3329887
p2889
aV3109224
p2890
aV1144542
p2891
aV19921423
p2892
aV1801280
p2893
aV1761927
p2894
ag2796
aV24536403
p2895
aV1435126
p2896
aV4088038
p2897
aV25735333
p2898
aV20490085
p2899
aV2311346
p2900
aV4883293
p2901
aV24720270
p2902
aV3338669
p2903
aV2666375
p2904
aV17912658
p2905
aV1793234
p2906
aV19967897
p2907
aV1945276
p2908
aV3563971
p2909
aV2280549
p2910
aV11577300
p2911
aV21356354
p2912
aV3116145
p2913
aV3793761
p2914
aV1982022
p2915
aV2984440
p2916
atp2917
Rp2918
sg786
g11
((lp2919
tp2920
Rp2921
sg790
(lp2922
sg792
g2780
sg796
(lp2923
g2867
asbag1
(g2
g3
Ntp2924
Rp2925
(dp2926
g7
Vpython
p2927
sg9
I4
sg10
g11
((lp2928
V7906788
p2929
aV7059900
p2930
aV10561724
p2931
aV5363255
p2932
aV1797513
p2933
aV5988563
p2934
aV5310233
p2935
aV1418172
p2936
aV6025284
p2937
aV25910544
p2938
aV3033853
p2939
aV3033852
p2940
aV4082027
p2941
aV3767034
p2942
aV2240226
p2943
aV4915945
p2944
aV25899625
p2945
aV4309422
p2946
aV3236656
p2947
aV21622482
p2948
aV4031965
p2949
aV3598510
p2950
aV1240608
p2951
aV3618928
p2952
aV5338024
p2953
aV10779534
p2954
aV6049132
p2955
aV10316075
p2956
aV4082016
p2957
aV3053232
p2958
aV7175280
p2959
aV19976932
p2960
aV24703171
p2961
aV3118306
p2962
aV10829316
p2963
aV1482279
p2964
aV4793807
p2965
aV25779298
p2966
aV2209702
p2967
aV3117898
p2968
aV24246865
p2969
aV5948760
p2970
aV25837145
p2971
aV11610789
p2972
aV3010431
p2973
aV24089005
p2974
aV3887824
p2975
aV5401851
p2976
aV4149253
p2977
aV3617254
p2978
aV10561367
p2979
aV3142778
p2980
aV4273956
p2981
aV25804112
p2982
aV26274202
p2983
aV2295097
p2984
aV3205338
p2985
aV6851222
p2986
aV4828875
p2987
aV1949295
p2988
aV3696989
p2989
aV1845309
p2990
aV3988517
p2991
aV25717197
p2992
aV3273420
p2993
aV1840672
p2994
aV3086810
p2995
aV10486432
p2996
aV3086812
p2997
aV6962285
p2998
aV1440658
p2999
aV3285148
p3000
aV25728189
p3001
aV25716519
p3002
aV3056375
p3003
aV24669811
p3004
aV3112503
p3005
aV3884108
p3006
aV1748395
p3007
aV5363753
p3008
aV5380976
p3009
aV2349542
p3010
aV1915868
p3011
aV4884975
p3012
aV2137490
p3013
aV4212921
p3014
aV1481058
p3015
aV11941213
p3016
aV1453163
p3017
aV1874839
p3018
aV3948354
p3019
aV25812801
p3020
aV4866934
p3021
aV20142450
p3022
aV1426816
p3023
aV3142908
p3024
aV3243372
p3025
aV2367330
p3026
aV3263568
p3027
aV3814402
p3028
aV2005622
p3029
aV1940567
p3030
aV1239501
p3031
aV5336893
p3032
aV2044249
p3033
aV25916599
p3034
aV25880219
p3035
aV3723903
p3036
aV3889005
p3037
aV10773324
p3038
aV1482162
p3039
aV1214355
p3040
aV1798896
p3041
aV3644995
p3042
aV24381562
p3043
aV6862113
p3044
aV3628910
p3045
aV4049526
p3046
aV10760444
p3047
aV1240831
p3048
aV3628911
p3049
aV7159030
p3050
aV7069379
p3051
aV3740086
p3052
aV1452125
p3053
aV1240249
p3054
aV20491078
p3055
atp3056
Rp3057
sg786
g11
((lp3058
tp3059
Rp3060
sg790
(lp3061
sg792
g11
((lp3062
g2865
ag5
ag1750
atp3063
Rp3064
sg796
(lp3065
g2927
asbag1
(g2
g3
Ntp3066
Rp3067
(dp3068
g7
g2927
sg9
I5
sg10
g11
((lp3069
tp3070
Rp3071
sg786
g11
((lp3072
tp3073
Rp3074
sg790
(lp3075
sg792
g11
((lp3076
g1750
ag2925
ag5
ag2865
atp3077
Rp3078
sg796
(lp3079
g2927
asbag1
(g2
g3
Ntp3080
Rp3081
(dp3082
g7
V\u6c47\u7f16\u8bed\u8a00
p3083
sg9
I4
sg10
g11
((lp3084
V1446250
p3085
aV1215178
p3086
aV1091830
p3087
aV1231240
p3088
aV3519359
p3089
aV1090313
p3090
aV2250326
p3091
aV3037562
p3092
aV1091718
p3093
aV1113144
p3094
aV1177805
p3095
aV1206059
p3096
aV1080511
p3097
aV11530329
p3098
aV1783103
p3099
atp3100
Rp3101
sg786
g11
((lp3102
tp3103
Rp3104
sg790
(lp3105
sg792
g3064
sg796
(lp3106
g3083
asbag1
(g2
g3
Ntp3107
Rp3108
(dp3109
g7
Vc/c++
p3110
sg9
I4
sg10
g11
((lp3111
V3043693
p3112
aV2075755
p3113
aV7059901
p3114
aV1459728
p3115
aV1174290
p3116
aV1236999
p3117
aV1215873
p3118
aV1415354
p3119
aV20471211
p3120
aV3729201
p3121
aV1229878
p3122
aV1135909
p3123
aV1229973
p3124
aV1768089
p3125
aV2023413
p3126
aV4882963
p3127
aV1236905
p3128
aV1134988
p3129
aV1610230
p3130
aV1488582
p3131
aV1695760
p3132
aV1128016
p3133
aV1102104
p3134
aV3898982
p3135
aV5348095
p3136
aV5940335
p3137
aV1835449
p3138
aV1967356
p3139
aV3700238
p3140
aV4875599
p3141
aV1096711
p3142
aV1149480
p3143
aV3948388
p3144
aV10529141
p3145
aV1121673
p3146
aV1457891
p3147
aV1786294
p3148
aV2054896
p3149
aV1909548
p3150
aV5276434
p3151
aV1971825
p3152
aV1094852
p3153
aV22163584
p3154
aV3546466
p3155
aV2132634
p3156
aV1752968
p3157
aV1232030
p3158
aV3277780
p3159
aV1110134
p3160
aV1180699
p3161
aV1047892
p3162
aV3629448
p3163
aV1869681
p3164
aV1106837
p3165
aV20497556
p3166
aV1096216
p3167
aV1138527
p3168
aV3012360
p3169
aV1091086
p3170
aV2341541
p3171
aV1982361
p3172
aV1551910
p3173
aV3031572
p3174
aV2226913
p3175
aV1459281
p3176
aV1087528
p3177
aV14267904
p3178
aV1886174
p3179
aV5372265
p3180
aV1165791
p3181
aV21317828
p3182
aV4191525
p3183
aV4895631
p3184
aV1089438
p3185
aV3775842
p3186
aV1237128
p3187
aV10536031
p3188
aV1100430
p3189
aV1208731
p3190
aV1456835
p3191
aV1456836
p3192
aV1119874
p3193
aV5907793
p3194
aV2030264
p3195
aV5410367
p3196
aV25815142
p3197
aV4604591
p3198
aV1967180
p3199
aV1119904
p3200
aV1208843
p3201
aV7053134
p3202
aV1230004
p3203
aV1767741
p3204
aV1731572
p3205
aV1452107
p3206
aV1099889
p3207
aV1920997
p3208
aV6558198
p3209
aV1319751
p3210
aV1138919
p3211
aV2338585
p3212
aV1455780
p3213
aV3687075
p3214
aV2007174
p3215
aV1240002
p3216
aV2314690
p3217
aV1124745
p3218
aV2451746
p3219
aV6021272
p3220
aV3235659
p3221
aV1237002
p3222
aV1484262
p3223
aV3074792
p3224
aV1159802
p3225
aV1102179
p3226
aV1192062
p3227
aV10754300
p3228
aV5914778
p3229
aV1679623
p3230
aV1102180
p3231
aV2115260
p3232
aV1219329
p3233
aV1134269
p3234
aV2352059
p3235
aV1230040
p3236
aV1671593
p3237
aV3582610
p3238
aV2778632
p3239
aV1142222
p3240
aV1842426
p3241
aV3691313
p3242
aV1752970
p3243
aV4068100
p3244
aV1619268
p3245
aV1900687
p3246
aV1913478
p3247
aV1648645
p3248
aV1040868
p3249
aV1427056
p3250
aV6027262
p3251
aV10944985
p3252
aV4251048
p3253
aV24745211
p3254
aV1955110
p3255
aV1180584
p3256
aV4891850
p3257
aV1836963
p3258
aV25827246
p3259
aV1925110
p3260
aV1027574
p3261
aV1801303
p3262
aV4908227
p3263
aV1231596
p3264
aV1231590
p3265
aV25888372
p3266
aV1094797
p3267
aV3076635
p3268
ag3036
aV1453373
p3269
aV1470838
p3270
aV1463391
p3271
aV1693041
p3272
aV4924419
p3273
aV3765227
p3274
aV1459013
p3275
aV4816029
p3276
aV2150411
p3277
aV1465579
p3278
aV1882483
p3279
aV4864940
p3280
aV6721989
p3281
aV1244943
p3282
aV1050882
p3283
aV3171363
p3284
aV10745760
p3285
aV6801697
p3286
aV1116599
p3287
aV2970056
p3288
aV4831448
p3289
aV1444656
p3290
aV2005943
p3291
aV4065258
p3292
aV2116929
p3293
aV1171926
p3294
aV1927968
p3295
aV1500013
p3296
aV1095883
p3297
aV3351221
p3298
aV1241385
p3299
aV1241386
p3300
aV2278610
p3301
aV4136223
p3302
aV4136222
p3303
aV4214191
p3304
aV1099938
p3305
aV1081005
p3306
aV1391000
p3307
aV24089577
p3308
aV3216097
p3309
aV1470841
p3310
aV1470842
p3311
aV15995126
p3312
aV1786366
p3313
aV3173123
p3314
aV2078636
p3315
aV1231702
p3316
aV1101779
p3317
aV1231835
p3318
aV3208743
p3319
aV4130141
p3320
aV1230427
p3321
aV6127082
p3322
aV5908727
p3323
aV2111771
p3324
aV1784687
p3325
aV11622703
p3326
aV4934674
p3327
aV1035119
p3328
aV1139426
p3329
aV1909336
p3330
aV1210406
p3331
aV1755195
p3332
aV4149139
p3333
aV1954443
p3334
aV4722708
p3335
aV4710825
p3336
aV1108716
p3337
aV1435683
p3338
aV4141733
p3339
aV1792611
p3340
aV1792610
p3341
aV5975640
p3342
aV6121201
p3343
aV2659812
p3344
aV1229899
p3345
aV6521022
p3346
aV1231477
p3347
aV1231576
p3348
aV1507276
p3349
aV2284230
p3350
aV1833825
p3351
aV1231875
p3352
aV1231876
p3353
aV1806974
p3354
aV1094802
p3355
aV2073826
p3356
aV1126807
p3357
aV1231194
p3358
aV4924153
p3359
aV1214684
p3360
aV1230489
p3361
aV1459007
p3362
aV1152528
p3363
aV4279678
p3364
aV6519268
p3365
aV2348801
p3366
aV2348802
p3367
aV10789789
p3368
aV2377310
p3369
aV1454486
p3370
aV1599306
p3371
aV1445308
p3372
aV3171424
p3373
aV1148265
p3374
aV1787854
p3375
aV4861770
p3376
aV2576431
p3377
aV1102097
p3378
aV10427315
p3379
aV1127940
p3380
aV1143879
p3381
aV25708312
p3382
aV1775790
p3383
aV1246353
p3384
aV1246054
p3385
aV3779585
p3386
aV2629105
p3387
aV1456860
p3388
aV5387403
p3389
aV25716079
p3390
aV1041241
p3391
aV1511815
p3392
aV1441429
p3393
aV1456961
p3394
aV6919383
p3395
aV1100716
p3396
aV4048525
p3397
aV1232029
p3398
aV1231481
p3399
aV2162035
p3400
aV1188751
p3401
aV10505113
p3402
aV3406939
p3403
aV3576025
p3404
aV1872697
p3405
aV6517504
p3406
aV2302961
p3407
aV4151159
p3408
aV3374083
p3409
aV1110942
p3410
aV2245821
p3411
aV1464826
p3412
aV3134332
p3413
aV4262575
p3414
aV4215154
p3415
aV1057170
p3416
aV1231820
p3417
aV1139336
p3418
aV6025290
p3419
aV1480481
p3420
aV1482240
p3421
aV3137324
p3422
aV25838016
p3423
aV1400498
p3424
aV1392987
p3425
aV2003414
p3426
aV1169844
p3427
aV5360961
p3428
aV3039784
p3429
aV4722718
p3430
aV2695770
p3431
aV4733494
p3432
aV4733492
p3433
aV1101524
p3434
aV24738301
p3435
aV4466841
p3436
aV1191966
p3437
aV1143801
p3438
aV4732251
p3439
aV2361237
p3440
aV6517498
p3441
aV1231767
p3442
aV2023061
p3443
aV1246162
p3444
aV6849800
p3445
aV2280547
p3446
aV2280545
p3447
aV1215826
p3448
aV1977121
p3449
aV2300986
p3450
aV3422332
p3451
aV1976183
p3452
aV1503810
p3453
atp3454
Rp3455
sg786
g11
((lp3456
tp3457
Rp3458
sg790
(lp3459
sg792
g3064
sg796
(lp3460
g3110
aVc
p3461
aVc++
p3462
aVc\u8bed\u8a00
p3463
asbag1
(g2
g3
Ntp3464
Rp3465
(dp3466
g7
Vstl
p3467
sg9
I5
sg10
g11
((lp3468
V2378124
p3469
aV1792179
p3470
aV1456960
p3471
aV1110941
p3472
aV2128514
p3473
aV1786365
p3474
aV1241423
p3475
aV1110934
p3476
aV1231789
p3477
aV1354636
p3478
aV1882488
p3479
aV6379918
p3480
aV1102943
p3481
aV2105720
p3482
aV1889699
p3483
atp3484
Rp3485
sg786
g11
((lp3486
tp3487
Rp3488
sg790
(lp3489
sg792
g11
((lp3490
g1750
ag2865
ag3108
ag5
atp3491
Rp3492
sg796
(lp3493
g3467
asbag1
(g2
g3
Ntp3494
Rp3495
(dp3496
g7
Vc/c++
p3497
sg9
I5
sg10
g11
((lp3498
tp3499
Rp3500
sg786
g11
((lp3501
tp3502
Rp3503
sg790
(lp3504
sg792
g3492
sg796
(lp3505
g3497
ag3461
aVc++
p3506
aVc\u8bed\u8a00
p3507
asbag1
(g2
g3
Ntp3508
Rp3509
(dp3510
g7
Vjava
p3511
sg9
I4
sg10
g11
((lp3512
V1247603
p3513
aV4496038
p3514
aV7059903
p3515
aV3413616
p3516
aV2307272
p3517
aV3266032
p3518
aV2000732
p3519
aV1837608
p3520
aV10426640
p3521
aV1504092
p3522
aV3146174
p3523
aV1758165
p3524
aV4190723
p3525
aV3005866
p3526
aV6440615
p3527
aV1315047
p3528
aV20142617
p3529
aV1110376
p3530
aV5362860
p3531
aV4709510
p3532
aV5345682
p3533
aV19965586
p3534
aV1231284
p3535
aV25841326
p3536
aV3675853
p3537
aV1722997
p3538
aV25762168
p3539
aV3711224
p3540
aV4848587
p3541
aV1230559
p3542
aV3393915
p3543
aV1180700
p3544
aV24757135
p3545
aV1464749
p3546
aV1138768
p3547
aV3245909
p3548
aV1897884
p3549
aV1414632
p3550
aV4324722
p3551
aV1099242
p3552
aV1192666
p3553
ag3294
aV1874376
p3554
aV5353188
p3555
aV3146161
p3556
aV24722612
p3557
aV1610221
p3558
aV21122695
p3559
aV10569600
p3560
aV1241143
p3561
aV4923187
p3562
aV1449028
p3563
aV1246186
p3564
aV6516576
p3565
aV6292202
p3566
aV19971952
p3567
aV25735798
p3568
aV3351237
p3569
aV3948395
p3570
aV1441161
p3571
aV3574178
p3572
aV1400528
p3573
aV1125297
p3574
aV1243809
p3575
aV1231250
p3576
aV1969390
p3577
aV1160314
p3578
aV2584518
p3579
aV4323628
p3580
aV3171430
p3581
aV2303830
p3582
aV1781451
p3583
aV2061172
p3584
aV1458692
p3585
aV1323556
p3586
aV6522893
p3587
aV3609046
p3588
aV5286654
p3589
aV1882459
p3590
aV4201514
p3591
aV1099236
p3592
aV1219945
p3593
aV6780810
p3594
aV1137263
p3595
aV4320723
p3596
aV4704184
p3597
aV4199509
p3598
aV1493173
p3599
aV3591551
p3600
aV1799654
p3601
aV24744263
p3602
aV2254253
p3603
aV1215111
p3604
aV3393930
p3605
aV3616173
p3606
aV2130190
p3607
aV2043934
p3608
aV1917831
p3609
aV2122620
p3610
aV3427126
p3611
aV2022796
p3612
aV3845030
p3613
ag2981
aV1432720
p3614
aV5377415
p3615
aV4137365
p3616
aV4052225
p3617
aV1474824
p3618
aV10464777
p3619
aV1417879
p3620
aV1503999
p3621
aV1239651
p3622
aV1882469
p3623
aV3112887
p3624
aV21661495
p3625
aV2382144
p3626
aV1173876
p3627
aV5980062
p3628
aV20275953
p3629
aV1962641
p3630
aV2325882
p3631
aV2369379
p3632
aV1882470
p3633
aV3142149
p3634
aV10470970
p3635
aV1972754
p3636
aV4280380
p3637
aV2261398
p3638
aV1230202
p3639
aV6003832
p3640
aV4909629
p3641
aV1114971
p3642
aV1400656
p3643
aV3182739
p3644
aV1754500
p3645
aV1231138
p3646
aV25967487
p3647
aV4845651
p3648
aV1231231
p3649
aV2696119
p3650
aV1101158
p3651
aV1936665
p3652
aV1433583
p3653
aV24714203
p3654
aV6799551
p3655
aV1971386
p3656
aV4201539
p3657
aV1432218
p3658
aV1845860
p3659
aV3149561
p3660
aV1244021
p3661
aV2057790
p3662
aV1168545
p3663
aV20260929
p3664
aV3592822
p3665
aV2309365
p3666
aV1972333
p3667
aV6981692
p3668
aV4735487
p3669
aV1432220
p3670
aV1499272
p3671
aV1888733
p3672
aV1246129
p3673
aV5343318
p3674
aV3351927
p3675
aV1104988
p3676
aV1106248
p3677
aV5040112
p3678
aV2282421
p3679
aV1475060
p3680
aV1882464
p3681
aV3360866
p3682
aV3843896
p3683
aV2584699
p3684
aV6797575
p3685
aV1144007
p3686
aV1187384
p3687
aV10826094
p3688
aV3519369
p3689
aV1169842
p3690
aV2109781
p3691
aV1757533
p3692
aV4141734
p3693
aV2153238
p3694
aV1768767
p3695
aV2148132
p3696
aV4197802
p3697
aV1231980
p3698
aV2336846
p3699
aV1929049
p3700
aV3246499
p3701
aV1783443
p3702
aV2231215
p3703
aV1214074
p3704
aV1140257
p3705
aV2035721
p3706
aV1418621
p3707
aV2282055
p3708
aV4309489
p3709
aV1313042
p3710
aV2224330
p3711
aV1281934
p3712
aV1473329
p3713
aV1914921
p3714
aV2023174
p3715
aV3743944
p3716
aV1787239
p3717
aV1879447
p3718
aV1896656
p3719
aV1247557
p3720
aV1231749
p3721
aV1094798
p3722
aV5291451
p3723
aV1536480
p3724
aV1109063
p3725
aV1240785
p3726
aV1432441
p3727
aV25770095
p3728
aV1533886
p3729
aV1229955
p3730
aV1044101
p3731
aV1231577
p3732
aV20142440
p3733
aV3292275
p3734
aV1446810
p3735
aV1843257
p3736
aV2334843
p3737
aV1244740
p3738
aV3245353
p3739
aV4236967
p3740
aV5253768
p3741
aV1737362
p3742
aV6974691
p3743
aV3034363
p3744
aV25867042
p3745
aV1943128
p3746
aV3726306
p3747
aV6529833
p3748
aV2240552
p3749
aV1505132
p3750
aV3575958
p3751
aV3998727
p3752
aV1230556
p3753
aV2243615
p3754
aV3360807
p3755
aV4009549
p3756
aV1792276
p3757
aV10344307
p3758
aV1924029
p3759
aV1484491
p3760
aV3723911
p3761
aV10484692
p3762
aV3879823
p3763
aV2338578
p3764
aV1229941
p3765
aV4111350
p3766
aV1866701
p3767
aV1438754
p3768
aV1103015
p3769
aV4240960
p3770
aV1942934
p3771
atp3772
Rp3773
sg786
g11
((lp3774
tp3775
Rp3776
sg790
(lp3777
sg792
g3064
sg796
(lp3778
g3511
asbag1
(g2
g3
Ntp3779
Rp3780
(dp3781
g7
Vj2ee
p3782
sg9
I5
sg10
g11
((lp3783
V1098924
p3784
aV1177982
p3785
aV1289151
p3786
aV3208666
p3787
aV10432844
p3788
aV1845248
p3789
aV1459826
p3790
aV1223239
p3791
aV3027579
p3792
aV4199483
p3793
aV2338563
p3794
aV2079922
p3795
aV1338866
p3796
aV2112652
p3797
aV1426848
p3798
aV1152116
p3799
aV3897837
p3800
aV1483761
p3801
aV1440851
p3802
aV1143271
p3803
aV1768018
p3804
aV1432164
p3805
aV1432165
p3806
aV1152145
p3807
aV1765252
p3808
aV1232003
p3809
aV1937656
p3810
aV2254612
p3811
aV1119852
p3812
aV3333726
p3813
aV2254524
p3814
aV1315050
p3815
aV2282628
p3816
aV1868196
p3817
aV1246147
p3818
aV1965861
p3819
aV1436131
p3820
aV2129650
p3821
aV1452527
p3822
aV1246215
p3823
aV1830509
p3824
aV3062105
p3825
aV1819569
p3826
aV1432219
p3827
aV2161099
p3828
aV1754542
p3829
aV1229946
p3830
aV4225168
p3831
aV1451401
p3832
aV1093792
p3833
aV1312929
p3834
atp3835
Rp3836
sg786
g11
((lp3837
tp3838
Rp3839
sg790
(lp3840
sg792
g11
((lp3841
g1750
ag3509
ag5
ag2865
atp3842
Rp3843
sg796
(lp3844
g3782
asbag1
(g2
g3
Ntp3845
Rp3846
(dp3847
g7
g3511
sg9
I5
sg10
g11
((lp3848
tp3849
Rp3850
sg786
g11
((lp3851
tp3852
Rp3853
sg790
(lp3854
sg792
g3843
sg796
(lp3855
g3511
asbag1
(g2
g3
Ntp3856
Rp3857
(dp3858
g7
V\u52a8\u6001\u8bed\u8a00
p3859
sg9
I4
sg10
g11
((lp3860
V3029411
p3861
aV3194320
p3862
ag2991
aV7056800
p3863
ag3579
aV3012828
p3864
aV3003178
p3865
aV3279191
p3866
atp3867
Rp3868
sg786
g11
((lp3869
tp3870
Rp3871
sg790
(lp3872
sg792
g3064
sg796
(lp3873
g3859
asbag1
(g2
g3
Ntp3874
Rp3875
(dp3876
g7
V\u8bbe\u8ba1\u6a21\u5f0f
p3877
sg9
I3
sg10
g11
((lp3878
V1429555
p3879
aV3948372
p3880
aV1850191
p3881
aV1177969
p3882
aV3530721
p3883
aV1232017
p3884
aV3765462
p3885
aV1237885
p3886
aV2046281
p3887
aV1629512
p3888
aV2227486
p3889
aV2347790
p3890
aV3644725
p3891
aV1835421
p3892
aV2076710
p3893
aV4870838
p3894
aV1436745
p3895
aV1177968
p3896
aV5323430
p3897
aV5360962
p3898
aV4260618
p3899
aV4816447
p3900
aV1140457
p3901
aV4826290
p3902
aV3338834
p3903
aV2147916
p3904
aV6920082
p3905
aV1829262
p3906
aV1315055
p3907
aV1456190
p3908
aV1178142
p3909
ag1620
aV1137259
p3910
aV1792387
p3911
aV2058456
p3912
aV3329540
p3913
aV11506062
p3914
aV1170844
p3915
aV2111801
p3916
aV3709632
p3917
aV4031906
p3918
aV2279416
p3919
aV3834488
p3920
aV1111621
p3921
aV5348122
p3922
aV2121078
p3923
aV1488876
p3924
aV3598802
p3925
aV3892590
p3926
aV2751053
p3927
aV5252901
p3928
aV1157145
p3929
aV1731445
p3930
aV2989411
p3931
aV1917706
p3932
aV1444890
p3933
aV1442623
p3934
aV3324516
p3935
aV1052241
p3936
aV3158926
p3937
aV1219912
p3938
aV6559267
p3939
aV10549583
p3940
aV20445258
p3941
aV1237577
p3942
aV3287474
p3943
aV3288728
p3944
aV1229901
p3945
aV1099305
p3946
aV2334288
p3947
atp3948
Rp3949
sg786
g11
((lp3950
tp3951
Rp3952
sg790
(lp3953
sg792
g2780
sg796
(lp3954
g3877
asbag1
(g2
g3
Ntp3955
Rp3956
(dp3957
g7
V\u8f6f\u4ef6\u6d4b\u8bd5
p3958
sg9
I3
sg10
g11
((lp3959
V4818689
p3960
aV1230207
p3961
aV1239654
p3962
aV4009658
p3963
aV1139061
p3964
aV1100628
p3965
aV6327184
p3966
aV1801050
p3967
aV1108096
p3968
aV1446528
p3969
aV1277305
p3970
aV1134893
p3971
aV3519392
p3972
aV4187479
p3973
aV1445661
p3974
aV1137266
p3975
aV1233316
p3976
aV11589836
p3977
aV3612082
p3978
aV6849791
p3979
aV3145026
p3980
aV25767601
p3981
aV1230459
p3982
aV2178611
p3983
aV1097403
p3984
aV3781522
p3985
aV4727937
p3986
aV2701174
p3987
aV7065508
p3988
aV25934516
p3989
aV3081690
p3990
aV1126084
p3991
aV5998156
p3992
aV1879511
p3993
aV1237584
p3994
aV1229924
p3995
aV3324012
p3996
aV1106125
p3997
aV2292262
p3998
aV2115579
p3999
aV1230408
p4000
aV1138072
p4001
atp4002
Rp4003
sg786
g11
((lp4004
tp4005
Rp4006
sg790
(lp4007
sg792
g2780
sg796
(lp4008
g3958
asbag1
(g2
g3
Ntp4009
Rp4010
(dp4011
g7
V\u7b97\u6cd5\u4e0e\u6570\u636e\u7ed3\u6784
p4012
sg9
I2
sg10
g11
((lp4013
V2222781
p4014
atp4015
Rp4016
sg786
g11
((lp4017
tp4018
Rp4019
sg790
(lp4020
sg792
g1035
sg796
(lp4021
g4012
aV\u6570\u636e\u7ed3\u6784\u4e0e\u7b97\u6cd5
p4022
asbag1
(g2
g3
Ntp4023
Rp4024
(dp4025
g7
V\u7b97\u6cd5
p4026
sg9
I3
sg10
g11
((lp4027
V3070758
p4028
aV1232071
p4029
aV1822197
p4030
ag1114
aV1136936
p4031
ag1117
aV2162225
p4032
aV2621921
p4033
aV1281543
p4034
aV3993014
p4035
aV6052205
p4036
aV19952400
p4037
aV1433114
p4038
aV4178907
p4039
aV4104319
p4040
ag1128
aV24529132
p4041
aV3099540
p4042
aV1965479
p4043
aV1755557
p4044
aV1436134
p4045
ag2795
ag1132
aV3409665
p4046
aV2044626
p4047
aV2147362
p4048
aV3208676
p4049
ag1554
aV6905019
p4050
aV1172109
p4051
aV1142227
p4052
aV1231268
p4053
aV6891958
p4054
aV2024655
p4055
aV1444648
p4056
aV3061693
p4057
aV1159177
p4058
aV1856070
p4059
aV3879470
p4060
aV1652744
p4061
aV1192665
p4062
aV11638634
p4063
aV1400350
p4064
aV7063664
p4065
aV3248794
p4066
aV1088180
p4067
aV5416095
p4068
aV6124333
p4069
aV2038862
p4070
ag1289
aV1933034
p4071
aV3227098
p4072
aV1247360
p4073
aV3592243
p4074
aV3226935
p4075
aV3269796
p4076
aV20254543
p4077
aV3004255
p4078
aV3217620
p4079
ag1626
ag1159
ag1160
aV1728541
p4080
aV10432347
p4081
ag1292
aV1170939
p4082
ag1178
aV1700826
p4083
aV1231271
p4084
aV1671885
p4085
aV3155710
p4086
aV21323941
p4087
aV6966465
p4088
aV6872527
p4089
aV1968704
p4090
ag1170
aV2870337
p4091
aV1152912
p4092
ag1174
aV6782289
p4093
aV4236350
p4094
ag1176
aV2035809
p4095
aV4854123
p4096
ag1179
aV3905078
p4097
aV4924297
p4098
aV5337086
p4099
aV3425827
p4100
aV1833253
p4101
aV1885170
p4102
aV1216137
p4103
aV1178870
p4104
aV1830622
p4105
ag1205
aV1740461
p4106
ag1185
aV1157908
p4107
aV2382700
p4108
aV10465997
p4109
ag1152
aV1130484
p4110
aV1910326
p4111
aV1173877
p4112
ag2805
aV1944826
p4113
aV5405857
p4114
aV1232050
p4115
aV1186808
p4116
aV1162043
p4117
ag1190
aV1230423
p4118
aV1230206
p4119
aV20432061
p4120
aV25854872
p4121
aV1809089
p4122
aV1475870
p4123
ag1198
aV4138920
p4124
aV3344455
p4125
aV1815995
p4126
aV1390010
p4127
aV4926709
p4128
ag1611
ag1203
aV1996256
p4129
aV6424904
p4130
aV3893574
p4131
aV1237102
p4132
aV1224798
p4133
aV1231933
p4134
aV1433399
p4135
ag1206
aV3595844
p4136
ag1207
aV1418402
p4137
ag1210
aV4133791
p4138
aV3072383
p4139
ag1213
aV3904676
p4140
ag1214
ag1215
aV1231756
p4141
aV3253654
p4142
aV1073031
p4143
aV1175379
p4144
ag1217
aV1078948
p4145
aV1231452
p4146
aV7564093
p4147
aV22181973
p4148
aV1504426
p4149
aV25844586
p4150
aV2184305
p4151
aV4033320
p4152
ag1632
aV1852515
p4153
aV25753386
p4154
aV2857875
p4155
aV1130500
p4156
aV6915691
p4157
aV4068099
p4158
aV1968308
p4159
aV3117569
p4160
aV6828678
p4161
ag1291
aV1231902
p4162
aV1869344
p4163
ag1231
aV25902102
p4164
aV3409655
p4165
aV2306526
p4166
aV4317573
p4167
aV4249686
p4168
aV1210411
p4169
aV2355752
p4170
aV1782632
p4171
aV1085842
p4172
aV1231690
p4173
aV5339429
p4174
ag1237
ag1307
aV1177989
p4175
aV25713498
p4176
aV1909899
p4177
aV4908229
p4178
aV4251756
p4179
aV1740009
p4180
ag1653
aV1318836
p4181
aV3151802
p4182
aV1154204
p4183
aV25779326
p4184
aV19949020
p4185
aV3597830
p4186
aV3307202
p4187
aV10436668
p4188
aV1435535
p4189
aV1229715
p4190
aV5991495
p4191
aV3234692
p4192
aV1801266
p4193
ag1247
aV1247361
p4194
aV1445320
p4195
aV1737364
p4196
ag1669
aV4048566
p4197
aV1231361
p4198
ag1581
aV3161829
p4199
ag1255
aV2030668
p4200
ag1257
aV1239121
p4201
aV4076217
p4202
aV2666523
p4203
aV3554718
p4204
aV1160102
p4205
aV2348812
p4206
aV5365195
p4207
aV1896663
p4208
aV4197799
p4209
aV1484710
p4210
aV3923731
p4211
ag1221
aV1896756
p4212
ag1267
ag1685
aV4778377
p4213
ag1683
aV1240909
p4214
aV24749842
p4215
aV1737661
p4216
aV1231910
p4217
atp4218
Rp4219
sg786
g11
((lp4220
tp4221
Rp4222
sg790
(lp4223
sg792
g11
((lp4224
g4010
ag5
atp4225
Rp4226
sg796
(lp4227
g4026
aValgorithm
p4228
asbag1
(g2
g3
Ntp4229
Rp4230
(dp4231
g7
V\u6570\u636e\u7ed3\u6784
p4232
sg9
I3
sg10
g11
((lp4233
V3683065
p4234
aV15994768
p4235
aV1190624
p4236
ag4080
ag4065
ag4035
ag4130
ag4186
ag4125
ag4044
ag4062
ag4046
ag4145
ag4098
aV1434845
p4237
ag4055
ag4202
ag4056
ag4208
ag4209
ag4211
ag4110
ag4172
ag4115
ag4116
ag4166
atp4238
Rp4239
sg786
g11
((lp4240
tp4241
Rp4242
sg790
(lp4243
sg792
g4226
sg796
(lp4244
g4232
aVdatastructure
p4245
asbag1
(g2
g3
Ntp4246
Rp4247
(dp4248
g7
V\u4fe1\u606f\u5b89\u5168
p4249
sg9
I2
sg10
g11
((lp4250
V5467211
p4251
aV1471392
p4252
aV1135012
p4253
ag2248
aV1146252
p4254
aV6404788
p4255
ag823
aV3091212
p4256
aV1943933
p4257
ag827
aV1962588
p4258
aV1240852
p4259
aV2380781
p4260
aV10546925
p4261
ag966
ag837
aV3043507
p4262
aV6524076
p4263
ag2462
aV6866348
p4264
aV1498757
p4265
aV3988180
p4266
ag1903
ag858
aV3351225
p4267
ag1511
aV20451827
p4268
ag867
aV6039240
p4269
aV4861648
p4270
aV10793814
p4271
aV4604856
p4272
aV1231654
p4273
ag2308
aV1458695
p4274
aV1319744
p4275
ag2069
ag889
ag817
ag1804
ag893
aV1479151
p4276
aV2112672
p4277
aV1214537
p4278
aV25723796
p4279
ag899
aV6958987
p4280
aV1108932
p4281
aV25733421
p4282
ag2588
aV4311436
p4283
aV3039206
p4284
ag2346
aV1159142
p4285
ag2351
aV3398163
p4286
aV20256840
p4287
aV10433737
p4288
aV10569617
p4289
aV1241428
p4290
aV1236951
p4291
aV4232093
p4292
aV20366359
p4293
ag829
aV3068994
p4294
aV2123166
p4295
aV1722817
p4296
ag2396
aV25878539
p4297
aV1314676
p4298
aV2035465
p4299
ag2401
ag887
aV3035185
p4300
aV1964694
p4301
aV6693075
p4302
aV10071963
p4303
aV2308040
p4304
aV6860891
p4305
ag1948
aV3870037
p4306
ag1468
aV20380498
p4307
ag2708
aV4908225
p4308
aV2229143
p4309
aV5398929
p4310
aV1792471
p4311
aV4714139
p4312
aV1309230
p4313
ag1020
ag2474
atp4314
Rp4315
sg786
g11
((lp4316
tp4317
Rp4318
sg790
(lp4319
sg792
g1035
sg796
(lp4320
g4249
aV\u8ba1\u7b97\u673a\u5b89\u5168
p4321
aV\u7f51\u7edc\u5b89\u5168
p4322
asbag1
(g2
g3
Ntp4323
Rp4324
(dp4325
g7
V\u5bc6\u7801\u5b66
p4326
sg9
I3
sg10
g11
((lp4327
V3923796
p4328
aV1237287
p4329
aV1400392
p4330
aV1146251
p4331
aV1048738
p4332
aV1240442
p4333
aV2678340
p4334
aV1229958
p4335
aV1170091
p4336
aV25772389
p4337
ag4051
aV4284053
p4338
aV2989519
p4339
aV1653408
p4340
aV1952089
p4341
aV1036413
p4342
aV2830425
p4343
ag4067
aV2861260
p4344
aV2006569
p4345
aV25781918
p4346
aV20503355
p4347
aV3184970
p4348
atp4349
Rp4350
sg786
g11
((lp4351
tp4352
Rp4353
sg790
(lp4354
sg792
g11
((lp4355
g4247
ag5
atp4356
Rp4357
sg796
(lp4358
g4326
asba.